Archive member included to satisfy reference by file (symbol)

/usr/lib/x86_64-linux-gnu/libc_nonshared.a(elf-init.oS)
                              /usr/bin/../lib/gcc/x86_64-linux-gnu/7.5.0/../../../x86_64-linux-gnu/crt1.o (__libc_csu_init)

Allocating common symbols
Common symbol       size              file

textureheight       0x8               build/r_data.o
bombdamage          0x4               build/p_map.o
intercept_p         0x8               build/p_maputl.o
ceilingline         0x8               build/p_map.o
screenheightarray   0x280             build/r_things.o
sscount             0x4               build/r_main.o
bottomtexture       0x4               build/r_segs.o
midtexture          0x4               build/r_segs.o
translationtables   0x8               build/r_draw.o
bestslideline       0x8               build/p_map.o
viewactive          0x4               build/g_game.o
finaleflat          0x8               build/f_finale.o
dc_texturemid       0x4               build/r_draw.o
pspritescale        0x4               build/r_things.o
sound_e             0x4               build/m_menu.o
flatmemory          0x4               build/r_data.o
viewcos             0x4               build/r_main.o
numlines            0x4               build/p_setup.o
dc_iscale           0x4               build/r_draw.o
numsectors          0x4               build/p_setup.o
totalsecret         0x4               build/g_game.o
bottomslope         0x4               build/p_sight.o
sendsave            0x4               build/g_game.o
cachedxstep         0x320             build/r_plane.o
savegamestrings     0xf0              build/m_menu.o
demoname            0x8               build/g_game.o
advancedemo         0x4               build/d_main.o
lines               0x8               build/p_setup.o
bmapheight          0x4               build/p_setup.o
rejectmatrix        0x8               build/p_setup.o
startepisode        0x4               build/d_main.o
setdetail           0x4               build/r_main.o
spechit             0xa0              build/p_map.o
centerxfrac         0x4               build/r_main.o
gamestate           0x4               build/g_game.o
savegamelength      0x4               build/p_saveg.o
skytexturemid       0x4               build/r_sky.o
itemrespawnque      0x500             build/p_mobj.o
overflowsprite      0x50              build/r_things.o
scalelight          0x1800            build/r_main.o
vertexes            0x8               build/p_setup.o
ds_x1               0x4               build/r_draw.o
mousey              0x4               build/g_game.o
pagename            0x8               build/d_main.o
offsetms            0x4               build/d_loop.o
skyflatnum          0x4               build/r_sky.o
toptexture          0x4               build/r_segs.o
t2x                 0x4               build/p_sight.o
vissprites          0x2800            build/r_things.o
lastanim            0x8               build/p_spec.o
epi                 0x4               build/m_menu.o
bodyqueslot         0x4               build/g_game.o
netgame             0x4               build/g_game.o
floorclip           0x280             build/r_plane.o
respawnmonsters     0x4               build/g_game.o
firstflat           0x4               build/r_data.o
vsprsortedhead      0x50              build/r_things.o
baseyscale          0x4               build/r_plane.o
mceilingclip        0x8               build/r_things.o
demosequence        0x4               build/d_main.o
displayplayer       0x4               build/g_game.o
extralight          0x4               build/r_main.o
iquetail            0x4               build/p_mobj.o
caststate           0x8               build/f_finale.o
segs                0x8               build/p_setup.o
d_map               0x4               build/g_game.o
numsides            0x4               build/p_setup.o
cd_Error            0x4               build/i_cdmus.o
texturetranslation  0x8               build/r_data.o
viewplayer          0x8               build/r_main.o
colfunc             0x8               build/r_main.o
dc_yl               0x4               build/r_draw.o
storedemo           0x4               build/d_main.o
dc_yh               0x4               build/r_draw.o
drawsegs            0x4000            build/r_bsp.o
myargc              0x4               build/m_argv.o
turbodetected       0x10              build/g_game.o
blocklinks          0x8               build/p_setup.o
ds_colormap         0x8               build/r_draw.o
demo_p              0x8               build/g_game.o
ceilingfunc         0x8               build/r_plane.o
ds_xstep            0x4               build/r_draw.o
walllights          0x8               build/r_segs.o
respawnparm         0x4               build/d_main.o
dc_colormap         0x8               build/r_draw.o
dc_translation      0x8               build/r_draw.o
usething            0x8               build/p_map.o
messy               0x4               build/m_menu.o
main_e              0x4               build/m_menu.o
lastpatch           0x4               build/r_data.o
earlyout            0x4               build/p_maputl.o
ptflags             0x4               build/p_maputl.o
setblocks           0x4               build/r_main.o
levelTimeCount      0x4               build/p_spec.o
mfloorclip          0x8               build/r_things.o
tmymove             0x4               build/p_map.o
shootz              0x4               build/p_map.o
segtextured         0x4               build/r_segs.o
hu_font             0x1f8             build/hu_stuff.o
spanstart           0x320             build/r_plane.o
negonearray         0x280             build/r_things.o
blockmaplump        0x8               build/p_setup.o
skullAnimCounter    0x2               build/m_menu.o
sttminus            0x8               build/st_lib.o
scaledviewwidth     0x4               build/r_draw.o
viewimage           0x8               build/r_draw.o
castattacking       0x4               build/f_finale.o
nomonsters          0x4               build/d_main.o
saveStringEnter     0x4               build/m_menu.o
numspritelumps      0x4               build/r_data.o
soundtarget         0x8               build/p_enemy.o
messageLastMenuActive
                    0x4               build/m_menu.o
bombspot            0x8               build/p_map.o
lastvisplane        0x8               build/r_plane.o
defdemoname         0x8               build/g_game.o
itemOn              0x2               build/m_menu.o
spritememory        0x4               build/r_data.o
centeryfrac         0x4               build/r_main.o
rw_midtexturemid    0x4               build/r_segs.o
rw_toptexturemid    0x4               build/r_segs.o
viewangle           0x4               build/r_main.o
fixedcolormap       0x8               build/r_main.o
frontsector         0x8               build/r_bsp.o
sides               0x8               build/p_setup.o
rw_scale            0x4               build/r_segs.o
rw_x                0x4               build/r_segs.o
clipangle           0x4               build/r_main.o
levelTimer          0x4               build/p_spec.o
lowres_turn         0x4               build/g_game.o
linedef             0x8               build/r_bsp.o
rw_stopx            0x4               build/r_segs.o
ceilingplane        0x8               build/r_plane.o
gametic             0x4               build/d_loop.o
messageNeedsInput   0x4               build/m_menu.o
title               0x80              build/d_main.o
nodes               0x8               build/p_setup.o
backsector          0x8               build/r_bsp.o
newend              0x8               build/r_bsp.o
spritetopoffset     0x8               build/r_data.o
save_stream         0x8               build/p_saveg.o
shootthing          0x8               build/p_map.o
t2y                 0x4               build/p_sight.o
floatok             0x4               build/p_map.o
translations        0x300             build/r_draw.o
demoplayback        0x4               build/g_game.o
scalelightfixed     0x180             build/r_main.o
trace               0x10              build/p_maputl.o
bottomstep          0x4               build/r_segs.o
startskill          0x4               build/d_main.o
worldbottom         0x4               build/r_segs.o
timelimit           0x4               build/g_game.o
castnum             0x4               build/f_finale.o
tmfloorz            0x4               build/p_map.o
menuactive          0x4               build/m_menu.o
numnodes            0x4               build/p_setup.o
cachedystep         0x320             build/r_plane.o
textures            0x8               build/r_data.o
solidsegs           0x100             build/r_bsp.o
starttime           0x4               build/g_game.o
singledemo          0x4               build/g_game.o
viewangleoffset     0x4               build/r_main.o
nodrawers           0x4               build/g_game.o
activeceilings      0xf0              build/p_ceilng.o
mainzone            0x8               build/z_zone.o
viewangletox        0x4000            build/r_main.o
castonmelee         0x4               build/f_finale.o
players             0x520             build/g_game.o
corpsehit           0x8               build/p_enemy.o
tmbbox              0x10              build/p_map.o
rw_centerangle      0x4               build/r_segs.o
newvissprite        0x4               build/r_things.o
gamemap             0x4               build/g_game.o
sectors             0x8               build/p_setup.o
tempstring          0x50              build/m_menu.o
numswitches         0x4               build/p_switch.o
quickSaveSlot       0x4               build/m_menu.o
chat_on             0x4               build/hu_stuff.o
d_skill             0x4               build/g_game.o
bfgedition          0x4               build/d_main.o
bmaporgy            0x4               build/p_setup.o
numsprites          0x4               build/r_things.o
levelstarttic       0x4               build/g_game.o
topslope            0x4               build/p_sight.o
lasttime            0x4               build/d_loop.o
read_e              0x4               build/m_menu.o
mousex              0x4               build/g_game.o
basexscale          0x4               build/r_plane.o
planeheight         0x4               build/r_plane.o
message_dontfuckwithme
                    0x4               build/hu_stuff.o
messx               0x4               build/m_menu.o
anims               0x280             build/p_spec.o
bombsource          0x8               build/p_map.o
viewx               0x4               build/r_main.o
ds_p                0x8               build/r_bsp.o
rw_distance         0x4               build/r_segs.o
numvertexes         0x4               build/p_setup.o
ds_ystep            0x4               build/r_draw.o
specials_e          0x4               build/p_saveg.o
deathmatch          0x4               build/g_game.o
secretexit          0x4               build/g_game.o
sightzstart         0x4               build/p_sight.o
netcmds             0x8               build/d_net.o
ceilingclip         0x280             build/r_plane.o
braintargets        0x100             build/p_enemy.o
flattranslation     0x8               build/r_data.o
buttonlist          0x200             build/p_switch.o
gamedescription     0x8               build/doomstat.o
sprites             0x8               build/r_things.o
viletryy            0x4               build/p_enemy.o
mapdir              0x400             build/d_main.o
lowfloor            0x4               build/p_maputl.o
wminfo              0xc8              build/g_game.o
sidedef             0x8               build/r_bsp.o
testcontrols_mousespeed
                    0x4               build/g_game.o
cacheddistance      0x320             build/r_plane.o
openbottom          0x4               build/p_maputl.o
finalecount         0x4               build/f_finale.o
totalitems          0x4               build/g_game.o
d_episode           0x4               build/g_game.o
viewheight          0x4               build/r_draw.o
startloadgame       0x4               build/d_main.o
totalkills          0x4               build/g_game.o
numpatches          0x4               build/r_data.o
myargv              0x8               build/m_argv.o
demobuffer          0x8               build/g_game.o
numsegs             0x4               build/p_setup.o
endstring           0xa0              build/m_menu.o
yslope              0x320             build/r_plane.o
activeplats         0xf0              build/p_plats.o
leveltime           0x4               build/p_tick.o
worldlow            0x4               build/r_segs.o
detailshift         0x4               build/r_main.o
pagetic             0x4               build/d_main.o
colormaps           0x8               build/r_data.o
dc_source           0x8               build/r_draw.o
chat_char           0x1               build/hu_stuff.o
rw_offset           0x4               build/r_segs.o
linetarget          0x8               build/p_map.o
onground            0x4               build/p_user.o
pixhigh             0x4               build/r_segs.o
cachedheight        0x320             build/r_plane.o
saveSlot            0x4               build/m_menu.o
saveOldString       0x18              build/m_menu.o
firstspritelump     0x4               build/r_data.o
viewsin             0x4               build/r_main.o
swingx              0x4               build/p_pspr.o
key_multi_msgplayer
                    0x20              build/m_controls.o
framecount          0x4               build/r_main.o
whichSkull          0x2               build/m_menu.o
screenvisible       0x4               build/i_video.o
consistancy         0x200             build/g_game.o
options_e           0x4               build/m_menu.o
demoend             0x8               build/g_game.o
strace              0x10              build/p_sight.o
casttics            0x4               build/f_finale.o
bulletslope         0x4               build/p_pspr.o
st_backing_screen   0x8               build/st_stuff.o
skytexture          0x4               build/r_sky.o
firstpatch          0x4               build/r_data.o
nofit               0x4               build/p_map.o
transcolfunc        0x8               build/r_main.o
floorplane          0x8               build/r_plane.o
devparm             0x4               build/d_main.o
aimslope            0x4               build/p_map.o
crushchange         0x4               build/p_map.o
autostart           0x4               build/d_main.o
worldhigh           0x4               build/r_segs.o
load_e              0x4               build/m_menu.o
tmx                 0x4               build/p_map.o
pixlow              0x4               build/r_segs.o
fastparm            0x4               build/d_main.o
tmflags             0x4               build/p_map.o
linespeciallist     0x200             build/p_spec.o
bottomfrac          0x4               build/r_segs.o
sprtopscreen        0x4               build/r_things.o
centerx             0x4               build/r_main.o
lastopening         0x8               build/r_plane.o
bodyque             0x100             build/g_game.o
markceiling         0x4               build/r_segs.o
rw_normalangle      0x4               build/r_segs.o
lumpinfo            0x8               build/w_wad.o
test                0x4               build/p_mobj.o
texturecompositesize
                    0x8               build/r_data.o
worldtop            0x4               build/r_segs.o
bmaporgx            0x4               build/p_setup.o
lastspritelump      0x4               build/r_data.o
gameaction          0x4               build/g_game.o
dscount             0x4               build/r_draw.o
spanfunc            0x8               build/r_main.o
paused              0x4               build/g_game.o
blockmap            0x8               build/p_setup.o
numbraintargets     0x4               build/p_enemy.o
bmapwidth           0x4               build/p_setup.o
lastflat            0x4               build/r_data.o
saveCharIndex       0x4               build/m_menu.o
viewy               0x4               build/r_main.o
savegamedir         0x8               build/d_main.o
numsubsectors       0x4               build/p_setup.o
modifiedgame        0x4               build/doomstat.o
setsizeneeded       0x4               build/r_main.o
tmdropoffz          0x4               build/p_map.o
gameskill           0x4               build/g_game.o
usergame            0x4               build/g_game.o
viewwindowx         0x4               build/r_draw.o
ticdup              0x4               build/d_loop.o
currentMenu         0x8               build/m_menu.o
rw_angle1           0x4               build/r_segs.o
loopcount           0x4               build/r_main.o
spritelights        0x8               build/r_things.o
slidemo             0x8               build/p_map.o
episodes_e          0x4               build/m_menu.o
topstep             0x4               build/r_segs.o
zlight              0x4000            build/r_main.o
texturememory       0x4               build/r_data.o
xtoviewangle        0x504             build/r_main.o
maskedtexture       0x4               build/r_segs.o
curline             0x8               build/r_bsp.o
finaletext          0x8               build/f_finale.o
viletryx            0x4               build/p_enemy.o
textures_hashtable  0x8               build/r_data.o
dirtybox            0x10              build/v_video.o
iquehead            0x4               build/p_mobj.o
castframes          0x4               build/f_finale.o
inhelpscreens       0x4               build/m_menu.o
castdeath           0x4               build/f_finale.o
ds_y                0x4               build/r_draw.o
configdir           0x8               build/m_config.o
fuzzcolfunc         0x8               build/r_main.o
texturecolumnofs    0x8               build/r_data.o
dccount             0x4               build/r_draw.o
savename            0x100             build/g_game.o
vileobj             0x8               build/p_enemy.o
topfrac             0x4               build/r_segs.o
maskedtexturecol    0x8               build/r_segs.o
distscale           0x500             build/r_plane.o
finalestage         0x4               build/f_finale.o
spryscale           0x4               build/r_things.o
pspriteiscale       0x4               build/r_things.o
deathmatchstarts    0x64              build/p_setup.o
ds_xfrac            0x4               build/r_draw.o
openrange           0x4               build/p_maputl.o
spriteoffset        0x8               build/r_data.o
linecount           0x4               build/r_main.o
numlinespecials     0x2               build/p_spec.o
messageString       0x8               build/m_menu.o
secondslideline     0x8               build/p_map.o
wadfile             0x400             build/d_main.o
longtics            0x4               build/g_game.o
screenSize          0x4               build/m_menu.o
tmxmove             0x4               build/p_map.o
savegame_error      0x4               build/p_saveg.o
vissprite_p         0x8               build/r_things.o
startmap            0x4               build/d_main.o
newgame_e           0x4               build/m_menu.o
ds_x2               0x4               build/r_draw.o
consoleplayer       0x4               build/g_game.o
rw_scalestep        0x4               build/r_segs.o
texturecolumnlump   0x8               build/r_data.o
secondslidefrac     0x4               build/p_map.o
numspechit          0x4               build/p_map.o
messageToPrint      0x4               build/m_menu.o
dc_x                0x4               build/r_draw.o
netdemo             0x4               build/g_game.o
swingy              0x4               build/p_pspr.o
playerstarts        0x28              build/p_setup.o
tmceilingz          0x4               build/p_map.o
spritewidth         0x8               build/r_data.o
timingdemo          0x4               build/g_game.o
sprtemp             0x32c             build/r_things.o
subsectors          0x8               build/p_setup.o
basecolfunc         0x8               build/r_main.o
pixlowstep          0x4               build/r_segs.o
numflats            0x4               build/r_data.o
tmy                 0x4               build/p_map.o
centery             0x4               build/r_main.o
planezlight         0x8               build/r_plane.o
columnofs           0x1180            build/r_draw.o
projection          0x4               build/r_main.o
spritename          0x8               build/r_things.o
gameepisode         0x4               build/g_game.o
demorecording       0x4               build/g_game.o
iwadfile            0x8               build/d_main.o
sendpause           0x4               build/g_game.o
markfloor           0x4               build/r_segs.o
itemrespawntime     0x200             build/p_mobj.o
thinkercap          0x18              build/p_tick.o
viewwidth           0x4               build/r_draw.o
messageRoutine      0x8               build/m_menu.o
maxframe            0x4               build/r_things.o
tmthing             0x8               build/p_map.o
openings            0xa000            build/r_plane.o
attackrange         0x4               build/p_map.o
viewwindowy         0x4               build/r_draw.o
visplanes           0x14c00           build/r_plane.o
deathmatch_p        0x8               build/p_setup.o
oldgamestate        0x4               build/g_game.o
texturewidthmask    0x8               build/r_data.o
playeringame        0x10              build/g_game.o
spanstop            0x320             build/r_plane.o
opentop             0x4               build/p_maputl.o
read_e2             0x4               build/m_menu.o
la_damage           0x4               build/p_map.o
pixhighstep         0x4               build/r_segs.o
texturecomposite    0x8               build/r_data.o
floorfunc           0x8               build/r_plane.o
switchlist          0x190             build/p_switch.o
ds_source           0x8               build/r_draw.o
bestslidefrac       0x4               build/p_map.o
ds_yfrac            0x4               build/r_draw.o
ylookup             0x1a00            build/r_draw.o
rw_bottomtexturemid
                    0x4               build/r_segs.o
intercepts          0xbd0             build/p_maputl.o
sightcounts         0x8               build/p_sight.o
numtextures         0x4               build/r_data.o
viewz               0x4               build/r_main.o

Discarded input sections

 .rodata.cst4   0x0000000000000000        0x4 /usr/bin/../lib/gcc/x86_64-linux-gnu/7.5.0/../../../x86_64-linux-gnu/crt1.o
 .data          0x0000000000000000        0x4 /usr/bin/../lib/gcc/x86_64-linux-gnu/7.5.0/../../../x86_64-linux-gnu/crt1.o
 .bss           0x0000000000000000        0x0 /usr/bin/../lib/gcc/x86_64-linux-gnu/7.5.0/../../../x86_64-linux-gnu/crt1.o
 .note.GNU-stack
                0x0000000000000000        0x0 /usr/bin/../lib/gcc/x86_64-linux-gnu/7.5.0/../../../x86_64-linux-gnu/crt1.o
 .text          0x0000000000000000        0x0 /usr/bin/../lib/gcc/x86_64-linux-gnu/7.5.0/../../../x86_64-linux-gnu/crti.o
 .data          0x0000000000000000        0x0 /usr/bin/../lib/gcc/x86_64-linux-gnu/7.5.0/../../../x86_64-linux-gnu/crti.o
 .bss           0x0000000000000000        0x0 /usr/bin/../lib/gcc/x86_64-linux-gnu/7.5.0/../../../x86_64-linux-gnu/crti.o
 .note.GNU-stack
                0x0000000000000000        0x0 /usr/bin/../lib/gcc/x86_64-linux-gnu/7.5.0/../../../x86_64-linux-gnu/crti.o
 .data          0x0000000000000000        0x8 /usr/bin/../lib/gcc/x86_64-linux-gnu/7.5.0/crtbegin.o
 .note.GNU-stack
                0x0000000000000000        0x0 /usr/bin/../lib/gcc/x86_64-linux-gnu/7.5.0/crtbegin.o
 .text          0x0000000000000000        0x1 build/dummy.o
 .note.GNU-stack
                0x0000000000000000        0x0 build/dummy.o
 .note.GNU-stack
                0x0000000000000000        0x0 build/am_map.o
 .text          0x0000000000000000        0x0 build/doomdef.o
 .comment       0x0000000000000000       0x37 build/doomdef.o
 .note.GNU-stack
                0x0000000000000000        0x0 build/doomdef.o
 .text          0x0000000000000000        0x0 build/doomstat.o
 .note.GNU-stack
                0x0000000000000000        0x0 build/doomstat.o
 .text          0x0000000000000000        0x0 build/dstrings.o
 .note.GNU-stack
                0x0000000000000000        0x0 build/dstrings.o
 .note.GNU-stack
                0x0000000000000000        0x0 build/d_event.o
 .text          0x0000000000000000        0x0 build/d_items.o
 .note.GNU-stack
                0x0000000000000000        0x0 build/d_items.o
 .note.GNU-stack
                0x0000000000000000        0x0 build/d_iwad.o
 .note.GNU-stack
                0x0000000000000000        0x0 build/d_loop.o
 .note.GNU-stack
                0x0000000000000000        0x0 build/d_main.o
 .note.GNU-stack
                0x0000000000000000        0x0 build/d_mode.o
 .note.GNU-stack
                0x0000000000000000        0x0 build/d_net.o
 .note.GNU-stack
                0x0000000000000000        0x0 build/f_finale.o
 .note.GNU-stack
                0x0000000000000000        0x0 build/f_wipe.o
 .note.GNU-stack
                0x0000000000000000        0x0 build/g_game.o
 .note.GNU-stack
                0x0000000000000000        0x0 build/hu_lib.o
 .note.GNU-stack
                0x0000000000000000        0x0 build/hu_stuff.o
 .text          0x0000000000000000        0x0 build/info.o
 .note.GNU-stack
                0x0000000000000000        0x0 build/info.o
 .text          0x0000000000000000       0x23 build/i_cdmus.o
 .note.GNU-stack
                0x0000000000000000        0x0 build/i_cdmus.o
 COMMON         0x0000000000000000        0x4 build/i_cdmus.o
 .note.GNU-stack
                0x0000000000000000        0x0 build/i_endoom.o
 .note.GNU-stack
                0x0000000000000000        0x0 build/i_joystick.o
 .text          0x0000000000000000     0x2413 build/i_scale.o
 .bss           0x0000000000000000       0x38 build/i_scale.o
 .data          0x0000000000000000      0x1e0 build/i_scale.o
 .rodata.str1.1
                0x0000000000000000       0x6a build/i_scale.o
 .rodata.str1.16
                0x0000000000000000       0x61 build/i_scale.o
 .note.GNU-stack
                0x0000000000000000        0x0 build/i_scale.o
 .note.GNU-stack
                0x0000000000000000        0x0 build/i_sound.o
 .note.GNU-stack
                0x0000000000000000        0x0 build/i_system.o
 .note.GNU-stack
                0x0000000000000000        0x0 build/i_timer.o
 .text          0x0000000000000000      0x20c build/memio.o
 .rodata.str1.1
                0x0000000000000000       0x15 build/memio.o
 .rodata.str1.16
                0x0000000000000000       0x12 build/memio.o
 .note.GNU-stack
                0x0000000000000000        0x0 build/memio.o
 .note.GNU-stack
                0x0000000000000000        0x0 build/m_argv.o
 .note.GNU-stack
                0x0000000000000000        0x0 build/m_bbox.o
 .note.GNU-stack
                0x0000000000000000        0x0 build/m_cheat.o
 .note.GNU-stack
                0x0000000000000000        0x0 build/m_config.o
 .note.GNU-stack
                0x0000000000000000        0x0 build/m_controls.o
 .note.GNU-stack
                0x0000000000000000        0x0 build/m_fixed.o
 .note.GNU-stack
                0x0000000000000000        0x0 build/m_menu.o
 .note.GNU-stack
                0x0000000000000000        0x0 build/m_misc.o
 .note.GNU-stack
                0x0000000000000000        0x0 build/m_random.o
 .note.GNU-stack
                0x0000000000000000        0x0 build/p_ceilng.o
 .note.GNU-stack
                0x0000000000000000        0x0 build/p_doors.o
 .note.GNU-stack
                0x0000000000000000        0x0 build/p_enemy.o
 .note.GNU-stack
                0x0000000000000000        0x0 build/p_floor.o
 .note.GNU-stack
                0x0000000000000000        0x0 build/p_inter.o
 .note.GNU-stack
                0x0000000000000000        0x0 build/p_lights.o
 .note.GNU-stack
                0x0000000000000000        0x0 build/p_map.o
 .note.GNU-stack
                0x0000000000000000        0x0 build/p_maputl.o
 .note.GNU-stack
                0x0000000000000000        0x0 build/p_mobj.o
 .note.GNU-stack
                0x0000000000000000        0x0 build/p_plats.o
 .note.GNU-stack
                0x0000000000000000        0x0 build/p_pspr.o
 .note.GNU-stack
                0x0000000000000000        0x0 build/p_saveg.o
 .note.GNU-stack
                0x0000000000000000        0x0 build/p_setup.o
 .note.GNU-stack
                0x0000000000000000        0x0 build/p_sight.o
 .note.GNU-stack
                0x0000000000000000        0x0 build/p_spec.o
 .note.GNU-stack
                0x0000000000000000        0x0 build/p_switch.o
 .note.GNU-stack
                0x0000000000000000        0x0 build/p_telept.o
 .note.GNU-stack
                0x0000000000000000        0x0 build/p_tick.o
 .note.GNU-stack
                0x0000000000000000        0x0 build/p_user.o
 .note.GNU-stack
                0x0000000000000000        0x0 build/r_bsp.o
 .note.GNU-stack
                0x0000000000000000        0x0 build/r_data.o
 .note.GNU-stack
                0x0000000000000000        0x0 build/r_draw.o
 .note.GNU-stack
                0x0000000000000000        0x0 build/r_main.o
 .note.GNU-stack
                0x0000000000000000        0x0 build/r_plane.o
 .note.GNU-stack
                0x0000000000000000        0x0 build/r_segs.o
 .note.GNU-stack
                0x0000000000000000        0x0 build/r_sky.o
 .note.GNU-stack
                0x0000000000000000        0x0 build/r_things.o
 .note.GNU-stack
                0x0000000000000000        0x0 build/sha1.o
 .text          0x0000000000000000        0x0 build/sounds.o
 .note.GNU-stack
                0x0000000000000000        0x0 build/sounds.o
 .note.GNU-stack
                0x0000000000000000        0x0 build/statdump.o
 .note.GNU-stack
                0x0000000000000000        0x0 build/st_lib.o
 .note.GNU-stack
                0x0000000000000000        0x0 build/st_stuff.o
 .note.GNU-stack
                0x0000000000000000        0x0 build/s_sound.o
 .note.GNU-stack
                0x0000000000000000        0x0 build/tables.o
 .note.GNU-stack
                0x0000000000000000        0x0 build/v_video.o
 .note.GNU-stack
                0x0000000000000000        0x0 build/wi_stuff.o
 .note.GNU-stack
                0x0000000000000000        0x0 build/w_checksum.o
 .note.GNU-stack
                0x0000000000000000        0x0 build/w_file.o
 .note.GNU-stack
                0x0000000000000000        0x0 build/w_main.o
 .note.GNU-stack
                0x0000000000000000        0x0 build/w_wad.o
 .note.GNU-stack
                0x0000000000000000        0x0 build/z_zone.o
 .note.GNU-stack
                0x0000000000000000        0x0 build/w_file_stdc.o
 .note.GNU-stack
                0x0000000000000000        0x0 build/i_input.o
 .note.GNU-stack
                0x0000000000000000        0x0 build/i_video.o
 .note.GNU-stack
                0x0000000000000000        0x0 build/doomgeneric.o
 .note.GNU-stack
                0x0000000000000000        0x0 build/doomgeneric_xlib.o
 .data          0x0000000000000000        0x0 /usr/lib/x86_64-linux-gnu/libc_nonshared.a(elf-init.oS)
 .bss           0x0000000000000000        0x0 /usr/lib/x86_64-linux-gnu/libc_nonshared.a(elf-init.oS)
 .note.GNU-stack
                0x0000000000000000        0x0 /usr/lib/x86_64-linux-gnu/libc_nonshared.a(elf-init.oS)
 .text          0x0000000000000000        0x0 /usr/bin/../lib/gcc/x86_64-linux-gnu/7.5.0/crtend.o
 .data          0x0000000000000000        0x0 /usr/bin/../lib/gcc/x86_64-linux-gnu/7.5.0/crtend.o
 .bss           0x0000000000000000        0x0 /usr/bin/../lib/gcc/x86_64-linux-gnu/7.5.0/crtend.o
 .note.GNU-stack
                0x0000000000000000        0x0 /usr/bin/../lib/gcc/x86_64-linux-gnu/7.5.0/crtend.o
 .text          0x0000000000000000        0x0 /usr/bin/../lib/gcc/x86_64-linux-gnu/7.5.0/../../../x86_64-linux-gnu/crtn.o
 .data          0x0000000000000000        0x0 /usr/bin/../lib/gcc/x86_64-linux-gnu/7.5.0/../../../x86_64-linux-gnu/crtn.o
 .bss           0x0000000000000000        0x0 /usr/bin/../lib/gcc/x86_64-linux-gnu/7.5.0/../../../x86_64-linux-gnu/crtn.o
 .note.GNU-stack
                0x0000000000000000        0x0 /usr/bin/../lib/gcc/x86_64-linux-gnu/7.5.0/../../../x86_64-linux-gnu/crtn.o

Memory Configuration

Name             Origin             Length             Attributes
*default*        0x0000000000000000 0xffffffffffffffff

Linker script and memory map

LOAD /usr/bin/../lib/gcc/x86_64-linux-gnu/7.5.0/../../../x86_64-linux-gnu/crt1.o
LOAD /usr/bin/../lib/gcc/x86_64-linux-gnu/7.5.0/../../../x86_64-linux-gnu/crti.o
LOAD /usr/bin/../lib/gcc/x86_64-linux-gnu/7.5.0/crtbegin.o
LOAD build/dummy.o
LOAD build/am_map.o
LOAD build/doomdef.o
LOAD build/doomstat.o
LOAD build/dstrings.o
LOAD build/d_event.o
LOAD build/d_items.o
LOAD build/d_iwad.o
LOAD build/d_loop.o
LOAD build/d_main.o
LOAD build/d_mode.o
LOAD build/d_net.o
LOAD build/f_finale.o
LOAD build/f_wipe.o
LOAD build/g_game.o
LOAD build/hu_lib.o
LOAD build/hu_stuff.o
LOAD build/info.o
LOAD build/i_cdmus.o
LOAD build/i_endoom.o
LOAD build/i_joystick.o
LOAD build/i_scale.o
LOAD build/i_sound.o
LOAD build/i_system.o
LOAD build/i_timer.o
LOAD build/memio.o
LOAD build/m_argv.o
LOAD build/m_bbox.o
LOAD build/m_cheat.o
LOAD build/m_config.o
LOAD build/m_controls.o
LOAD build/m_fixed.o
LOAD build/m_menu.o
LOAD build/m_misc.o
LOAD build/m_random.o
LOAD build/p_ceilng.o
LOAD build/p_doors.o
LOAD build/p_enemy.o
LOAD build/p_floor.o
LOAD build/p_inter.o
LOAD build/p_lights.o
LOAD build/p_map.o
LOAD build/p_maputl.o
LOAD build/p_mobj.o
LOAD build/p_plats.o
LOAD build/p_pspr.o
LOAD build/p_saveg.o
LOAD build/p_setup.o
LOAD build/p_sight.o
LOAD build/p_spec.o
LOAD build/p_switch.o
LOAD build/p_telept.o
LOAD build/p_tick.o
LOAD build/p_user.o
LOAD build/r_bsp.o
LOAD build/r_data.o
LOAD build/r_draw.o
LOAD build/r_main.o
LOAD build/r_plane.o
LOAD build/r_segs.o
LOAD build/r_sky.o
LOAD build/r_things.o
LOAD build/sha1.o
LOAD build/sounds.o
LOAD build/statdump.o
LOAD build/st_lib.o
LOAD build/st_stuff.o
LOAD build/s_sound.o
LOAD build/tables.o
LOAD build/v_video.o
LOAD build/wi_stuff.o
LOAD build/w_checksum.o
LOAD build/w_file.o
LOAD build/w_main.o
LOAD build/w_wad.o
LOAD build/z_zone.o
LOAD build/w_file_stdc.o
LOAD build/i_input.o
LOAD build/i_video.o
LOAD build/doomgeneric.o
LOAD build/doomgeneric_xlib.o
LOAD /usr/bin/../lib/gcc/x86_64-linux-gnu/7.5.0/../../../x86_64-linux-gnu/libm.so
START GROUP
LOAD /lib/x86_64-linux-gnu/libm.so.6
LOAD /usr/lib/x86_64-linux-gnu/libmvec_nonshared.a
LOAD /lib/x86_64-linux-gnu/libmvec.so.1
END GROUP
LOAD /usr/bin/../lib/gcc/x86_64-linux-gnu/7.5.0/../../../x86_64-linux-gnu/libc.so
START GROUP
LOAD /lib/x86_64-linux-gnu/libc.so.6
LOAD /usr/lib/x86_64-linux-gnu/libc_nonshared.a
LOAD /lib/x86_64-linux-gnu/ld-linux-x86-64.so.2
END GROUP
LOAD /usr/bin/../lib/gcc/x86_64-linux-gnu/7.5.0/../../../x86_64-linux-gnu/libX11.so
LOAD /usr/bin/../lib/gcc/x86_64-linux-gnu/7.5.0/libgcc.a
LOAD /usr/bin/../lib/gcc/x86_64-linux-gnu/7.5.0/libgcc_s.so
START GROUP
LOAD /usr/bin/../lib/gcc/x86_64-linux-gnu/7.5.0/libgcc_s.so.1
LOAD /usr/bin/../lib/gcc/x86_64-linux-gnu/7.5.0/libgcc.a
END GROUP
LOAD /usr/bin/../lib/gcc/x86_64-linux-gnu/7.5.0/../../../x86_64-linux-gnu/libc.so
START GROUP
LOAD /lib/x86_64-linux-gnu/libc.so.6
LOAD /usr/lib/x86_64-linux-gnu/libc_nonshared.a
LOAD /lib/x86_64-linux-gnu/ld-linux-x86-64.so.2
END GROUP
LOAD /usr/bin/../lib/gcc/x86_64-linux-gnu/7.5.0/libgcc.a
LOAD /usr/bin/../lib/gcc/x86_64-linux-gnu/7.5.0/libgcc_s.so
START GROUP
LOAD /usr/bin/../lib/gcc/x86_64-linux-gnu/7.5.0/libgcc_s.so.1
LOAD /usr/bin/../lib/gcc/x86_64-linux-gnu/7.5.0/libgcc.a
END GROUP
LOAD /usr/bin/../lib/gcc/x86_64-linux-gnu/7.5.0/crtend.o
LOAD /usr/bin/../lib/gcc/x86_64-linux-gnu/7.5.0/../../../x86_64-linux-gnu/crtn.o
                [!provide]                        PROVIDE (__executable_start = SEGMENT_START ("text-segment", 0x400000))
                0x0000000000400238                . = (SEGMENT_START ("text-segment", 0x400000) + SIZEOF_HEADERS)

.interp         0x0000000000400238       0x1c
 *(.interp)
 .interp        0x0000000000400238       0x1c /usr/bin/../lib/gcc/x86_64-linux-gnu/7.5.0/../../../x86_64-linux-gnu/crt1.o

.note.ABI-tag   0x0000000000400254       0x20
 .note.ABI-tag  0x0000000000400254       0x20 /usr/bin/../lib/gcc/x86_64-linux-gnu/7.5.0/../../../x86_64-linux-gnu/crt1.o

.note.gnu.build-id
 *(.note.gnu.build-id)

.hash
 *(.hash)

.gnu.hash       0x0000000000400278       0x3c
 *(.gnu.hash)
 .gnu.hash      0x0000000000400278       0x3c /usr/bin/../lib/gcc/x86_64-linux-gnu/7.5.0/../../../x86_64-linux-gnu/crt1.o

.dynsym         0x00000000004002b8      0x630
 *(.dynsym)
 .dynsym        0x00000000004002b8      0x630 /usr/bin/../lib/gcc/x86_64-linux-gnu/7.5.0/../../../x86_64-linux-gnu/crt1.o

.dynstr         0x00000000004008e8      0x29c
 *(.dynstr)
 .dynstr        0x00000000004008e8      0x29c /usr/bin/../lib/gcc/x86_64-linux-gnu/7.5.0/../../../x86_64-linux-gnu/crt1.o

.gnu.version    0x0000000000400b84       0x84
 *(.gnu.version)
 .gnu.version   0x0000000000400b84       0x84 /usr/bin/../lib/gcc/x86_64-linux-gnu/7.5.0/../../../x86_64-linux-gnu/crt1.o

.gnu.version_d  0x0000000000400c08        0x0
 *(.gnu.version_d)
 .gnu.version_d
                0x0000000000400c08        0x0 /usr/bin/../lib/gcc/x86_64-linux-gnu/7.5.0/../../../x86_64-linux-gnu/crt1.o

.gnu.version_r  0x0000000000400c08       0x50
 *(.gnu.version_r)
 .gnu.version_r
                0x0000000000400c08       0x50 /usr/bin/../lib/gcc/x86_64-linux-gnu/7.5.0/../../../x86_64-linux-gnu/crt1.o

.rela.dyn       0x0000000000400c58       0x48
 *(.rela.init)
 *(.rela.text .rela.text.* .rela.gnu.linkonce.t.*)
 .rela.text     0x0000000000400c58        0x0 /usr/bin/../lib/gcc/x86_64-linux-gnu/7.5.0/../../../x86_64-linux-gnu/crt1.o
 *(.rela.fini)
 *(.rela.rodata .rela.rodata.* .rela.gnu.linkonce.r.*)
 .rela.rodata   0x0000000000400c58        0x0 /usr/bin/../lib/gcc/x86_64-linux-gnu/7.5.0/../../../x86_64-linux-gnu/crt1.o
 *(.rela.data .rela.data.* .rela.gnu.linkonce.d.*)
 .rela.data.rel.ro
                0x0000000000400c58        0x0 /usr/bin/../lib/gcc/x86_64-linux-gnu/7.5.0/../../../x86_64-linux-gnu/crt1.o
 *(.rela.tdata .rela.tdata.* .rela.gnu.linkonce.td.*)
 *(.rela.tbss .rela.tbss.* .rela.gnu.linkonce.tb.*)
 *(.rela.ctors)
 *(.rela.dtors)
 *(.rela.got)
 .rela.got      0x0000000000400c58       0x30 /usr/bin/../lib/gcc/x86_64-linux-gnu/7.5.0/../../../x86_64-linux-gnu/crt1.o
 *(.rela.bss .rela.bss.* .rela.gnu.linkonce.b.*)
 .rela.bss      0x0000000000400c88       0x18 /usr/bin/../lib/gcc/x86_64-linux-gnu/7.5.0/../../../x86_64-linux-gnu/crt1.o
 *(.rela.ldata .rela.ldata.* .rela.gnu.linkonce.l.*)
 *(.rela.lbss .rela.lbss.* .rela.gnu.linkonce.lb.*)
 *(.rela.lrodata .rela.lrodata.* .rela.gnu.linkonce.lr.*)
 *(.rela.ifunc)

.rela.plt       0x0000000000400ca0      0x558
 *(.rela.plt)
 .rela.plt      0x0000000000400ca0      0x558 /usr/bin/../lib/gcc/x86_64-linux-gnu/7.5.0/../../../x86_64-linux-gnu/crt1.o
                [!provide]                        PROVIDE (__rela_iplt_start = .)
 *(.rela.iplt)
 .rela.iplt     0x00000000004011f8        0x0 /usr/bin/../lib/gcc/x86_64-linux-gnu/7.5.0/../../../x86_64-linux-gnu/crt1.o
                [!provide]                        PROVIDE (__rela_iplt_end = .)

.init           0x00000000004011f8       0x17
 *(SORT_NONE(.init))
 .init          0x00000000004011f8       0x12 /usr/bin/../lib/gcc/x86_64-linux-gnu/7.5.0/../../../x86_64-linux-gnu/crti.o
                0x00000000004011f8                _init
 .init          0x000000000040120a        0x5 /usr/bin/../lib/gcc/x86_64-linux-gnu/7.5.0/../../../x86_64-linux-gnu/crtn.o

.plt            0x0000000000401210      0x3a0
 *(.plt)
 .plt           0x0000000000401210      0x3a0 /usr/bin/../lib/gcc/x86_64-linux-gnu/7.5.0/../../../x86_64-linux-gnu/crt1.o
                0x0000000000401220                XkbSetDetectableAutoRepeat
                0x0000000000401230                printf@@GLIBC_2.2.5
                0x0000000000401240                memset@@GLIBC_2.2.5
                0x0000000000401250                ftell@@GLIBC_2.2.5
                0x0000000000401260                snprintf@@GLIBC_2.2.5
                0x0000000000401270                memchr@@GLIBC_2.2.5
                0x0000000000401280                puts@@GLIBC_2.2.5
                0x0000000000401290                fseek@@GLIBC_2.2.5
                0x00000000004012a0                __isoc99_sscanf@@GLIBC_2.7
                0x00000000004012b0                toupper@@GLIBC_2.2.5
                0x00000000004012c0                exit@@GLIBC_2.2.5
                0x00000000004012d0                XCreateImage
                0x00000000004012e0                strcasecmp@@GLIBC_2.2.5
                0x00000000004012f0                gettimeofday@@GLIBC_2.2.5
                0x0000000000401300                putchar@@GLIBC_2.2.5
                0x0000000000401310                strncmp@@GLIBC_2.2.5
                0x0000000000401320                malloc@@GLIBC_2.2.5
                0x0000000000401330                fopen@@GLIBC_2.2.5
                0x0000000000401340                system@@GLIBC_2.2.5
                0x0000000000401350                XCreateSimpleWindow
                0x0000000000401360                XOpenDisplay
                0x0000000000401370                atof@@GLIBC_2.2.5
                0x0000000000401380                vfprintf@@GLIBC_2.2.5
                0x0000000000401390                __ctype_toupper_loc@@GLIBC_2.3
                0x00000000004013a0                free@@GLIBC_2.2.5
                0x00000000004013b0                strlen@@GLIBC_2.2.5
                0x00000000004013c0                XSetForeground
                0x00000000004013d0                strrchr@@GLIBC_2.2.5
                0x00000000004013e0                XNextEvent
                0x00000000004013f0                usleep@@GLIBC_2.2.5
                0x0000000000401400                strstr@@GLIBC_2.2.5
                0x0000000000401410                atoi@@GLIBC_2.2.5
                0x0000000000401420                XMapWindow
                0x0000000000401430                vsnprintf@@GLIBC_2.2.5
                0x0000000000401440                fread@@GLIBC_2.2.5
                0x0000000000401450                XCreateGC
                0x0000000000401460                XSelectInput
                0x0000000000401470                __errno_location@@GLIBC_2.2.5
                0x0000000000401480                strdup@@GLIBC_2.2.5
                0x0000000000401490                strncasecmp@@GLIBC_2.2.5
                0x00000000004014a0                XPutImage
                0x00000000004014b0                strcmp@@GLIBC_2.2.5
                0x00000000004014c0                tolower@@GLIBC_2.2.5
                0x00000000004014d0                XKeycodeToKeysym
                0x00000000004014e0                calloc@@GLIBC_2.2.5
                0x00000000004014f0                fclose@@GLIBC_2.2.5
                0x0000000000401500                remove@@GLIBC_2.2.5
                0x0000000000401510                strncpy@@GLIBC_2.2.5
                0x0000000000401520                XChangeProperty
                0x0000000000401530                fwrite@@GLIBC_2.2.5
                0x0000000000401540                realloc@@GLIBC_2.2.5
                0x0000000000401550                fprintf@@GLIBC_2.2.5
                0x0000000000401560                memcpy@@GLIBC_2.14
                0x0000000000401570                rename@@GLIBC_2.2.5
                0x0000000000401580                XPending
                0x0000000000401590                mkdir@@GLIBC_2.2.5
                0x00000000004015a0                fflush@@GLIBC_2.2.5
 *(.iplt)
 .iplt          0x00000000004015b0        0x0 /usr/bin/../lib/gcc/x86_64-linux-gnu/7.5.0/../../../x86_64-linux-gnu/crt1.o

.plt.got        0x00000000004015b0        0x0
 *(.plt.got)
 .plt.got       0x00000000004015b0        0x0 /usr/bin/../lib/gcc/x86_64-linux-gnu/7.5.0/../../../x86_64-linux-gnu/crt1.o

.plt.sec
 *(.plt.sec)

.text           0x00000000004015b0    0x25e42
 *(.text.unlikely .text.*_unlikely .text.unlikely.*)
 *(.text.exit .text.exit.*)
 *(.text.startup .text.startup.*)
 *(.text.hot .text.hot.*)
 *(.text .stub .text.* .gnu.linkonce.t.*)
 .text          0x00000000004015b0       0x32 /usr/bin/../lib/gcc/x86_64-linux-gnu/7.5.0/../../../x86_64-linux-gnu/crt1.o
                0x00000000004015b0                _start
                0x00000000004015e0                _dl_relocate_static_pie
 *fill*         0x00000000004015e2        0xe 
 .text          0x00000000004015f0       0xa7 /usr/bin/../lib/gcc/x86_64-linux-gnu/7.5.0/crtbegin.o
 *fill*         0x0000000000401697        0x1 
 .text          0x0000000000401698     0x1a53 build/am_map.o
                0x0000000000401698                AM_getIslope
                0x00000000004016ea                AM_activateNewScale
                0x000000000040179f                AM_saveScaleAndLoc
                0x00000000004017d0                AM_restoreScaleAndLoc
                0x0000000000401879                AM_addMark
                0x00000000004018df                AM_findMinMaxBoundaries
                0x00000000004019f6                AM_changeWindowLoc
                0x0000000000401ab7                AM_initVariables
                0x0000000000401c12                AM_loadPics
                0x0000000000401c5c                AM_unloadPics
                0x0000000000401c95                AM_clearMarks
                0x0000000000401cb7                AM_LevelInit
                0x0000000000401d2a                AM_Stop
                0x0000000000401d4d                AM_Start
                0x0000000000401dc2                AM_minOutWindowScale
                0x0000000000401de5                AM_maxOutWindowScale
                0x0000000000401e08                AM_Responder
                0x0000000000402279                AM_changeWindowScale
                0x00000000004022d9                AM_doFollowPlayer
                0x00000000004023ae                AM_updateLightLev
                0x0000000000402417                AM_Ticker
                0x000000000040245e                AM_clearFB
                0x0000000000402496                AM_clipMline
                0x0000000000402816                AM_drawFline
                0x0000000000402996                AM_drawMline
                0x00000000004029b6                AM_drawGrid
                0x0000000000402ac8                AM_drawWalls
                0x0000000000402bf8                AM_rotate
                0x0000000000402c63                AM_drawLineCharacter
                0x0000000000402dad                AM_drawPlayers
                0x0000000000402e7d                AM_drawThings
                0x0000000000402efa                AM_drawMarks
                0x0000000000402fd0                AM_drawCrosshair
                0x000000000040300c                AM_Drawer
 *fill*         0x00000000004030eb        0x1 
 .text          0x00000000004030ec       0x7b build/d_event.o
                0x00000000004030ec                D_PostEvent
                0x000000000040312c                D_PopEvent
 *fill*         0x0000000000403167        0x1 
 .text          0x0000000000403168      0x3f2 build/d_iwad.o
                0x0000000000403168                D_FindWADByName
                0x000000000040327a                D_TryFindWADByName
                0x000000000040328c                D_FindIWAD
                0x000000000040347d                D_FindAllIWADs
                0x00000000004034e2                D_SaveGameIWADName
                0x0000000000403505                D_SuggestIWADName
                0x000000000040352d                D_SuggestGameName
 *fill*         0x000000000040355a        0x2 
 .text          0x000000000040355c      0x5f0 build/d_loop.o
                0x000000000040355c                NetUpdate
                0x00000000004036d1                D_ReceiveTic
                0x0000000000403769                D_StartGameLoop
                0x00000000004037b6                D_StartNetGame
                0x00000000004037ed                D_InitNetGame
                0x000000000040380d                D_QuitNetGame
                0x000000000040380e                TryRunTics
                0x0000000000403b44                D_RegisterLoopCallbacks
 .text          0x0000000000403b4c     0x13b8 build/d_main.o
                0x0000000000403b4c                D_ProcessEvents
                0x0000000000403b7b                D_Display
                0x0000000000403ec6                D_PageDrawer
                0x0000000000403ee5                D_BindVariables
                0x0000000000404009                D_GrabMouseCallback
                0x000000000040403b                doomgeneric_Tick
                0x0000000000404071                D_DoomLoop
                0x0000000000404108                D_PageTicker
                0x0000000000404127                D_AdvanceDemo
                0x0000000000404132                D_DoAdvanceDemo
                0x000000000040429f                D_StartTitle
                0x00000000004042be                D_IdentifyVersion
                0x0000000000404445                D_SetGameDescription
                0x000000000040452a                PrintDehackedBanners
                0x000000000040452b                PrintGameVersion
                0x000000000040455f                D_DoomMain
 .text          0x0000000000404f04      0x11a build/d_mode.o
                0x0000000000404f04                D_ValidGameMode
                0x0000000000404f2a                D_ValidEpisodeMap
                0x0000000000404f98                D_GetNumEpisodes
                0x0000000000404fc5                D_ValidGameVersion
                0x0000000000404ff4                D_IsEpisodeMap
                0x0000000000405007                D_GameMissionString
 *fill*         0x000000000040501e        0x2 
 .text          0x0000000000405020      0x379 build/d_net.o
                0x0000000000405020                D_ConnectNetGame
                0x00000000004050fc                D_CheckNetGame
 *fill*         0x0000000000405399        0x3 
 .text          0x000000000040539c      0xb4a build/f_finale.o
                0x000000000040539c                F_StartFinale
                0x000000000040547c                F_Responder
                0x0000000000405488                F_CastResponder
                0x0000000000405506                F_Ticker
                0x00000000004055d0                F_StartCast
                0x0000000000405643                F_CastTicker
                0x0000000000405a27                F_TextWrite
                0x0000000000405b55                F_CastPrint
                0x0000000000405c04                F_CastDrawer
                0x0000000000405c9b                F_DrawPatchCol
                0x0000000000405cff                F_BunnyScroll
                0x0000000000405e76                F_Drawer
 *fill*         0x0000000000405ee6        0x2 
 .text          0x0000000000405ee8      0x4ea build/f_wipe.o
                0x0000000000405ee8                wipe_shittyColMajorXform
                0x0000000000405f88                wipe_initColorXForm
                0x0000000000405fac                wipe_doColorXForm
                0x0000000000406010                wipe_exitColorXForm
                0x0000000000406013                wipe_initMelt
                0x000000000040610a                wipe_doMelt
                0x0000000000406299                wipe_exitMelt
                0x00000000004062c2                wipe_StartScreen
                0x00000000004062e7                wipe_EndScreen
                0x000000000040633b                wipe_ScreenWipe
 *fill*         0x00000000004063d2        0x2 
 .text          0x00000000004063d4     0x22fd build/g_game.o
                0x00000000004063d4                G_CmdChecksum
                0x00000000004063e8                G_BuildTiccmd
                0x0000000000406adc                G_DoLoadLevel
                0x0000000000406c6c                G_Responder
                0x0000000000406f71                G_Ticker
                0x00000000004072c4                G_DoReborn
                0x000000000040738e                G_DoNewGame
                0x00000000004073f1                G_DoLoadGame
                0x00000000004074a5                G_DoSaveGame
                0x00000000004075eb                G_DoPlayDemo
                0x00000000004077f5                G_DoCompleted
                0x0000000000407ad1                G_DoWorldDone
                0x0000000000407b00                G_ReadDemoTiccmd
                0x0000000000407b80                G_WriteDemoTiccmd
                0x0000000000407cc9                G_InitPlayer
                0x0000000000407ccb                G_PlayerReborn
                0x0000000000407d68                G_PlayerFinishLevel
                0x0000000000407dac                G_CheckSpot
                0x0000000000407f87                G_DeathMatchSpawnPlayer
                0x0000000000408023                G_ScreenShot
                0x000000000040802e                G_ExitLevel
                0x0000000000408043                G_SecretExitLevel
                0x000000000040807a                G_WorldDone
                0x00000000004080d8                G_LoadGame
                0x00000000004080fa                G_InitNew
                0x00000000004082d5                G_SaveGame
                0x00000000004082f7                G_DeferedInitNew
                0x0000000000408314                G_CheckDemoStatus
                0x0000000000408444                G_RecordDemo
                0x00000000004084f4                G_VanillaVersionCode
                0x0000000000408532                G_BeginRecording
                0x0000000000408687                G_DeferedPlayDemo
                0x0000000000408699                G_TimeDemo
 *fill*         0x00000000004086d1        0x3 
 .text          0x00000000004086d4      0x5da build/hu_lib.o
                0x00000000004086d4                HUlib_init
                0x00000000004086d5                HUlib_clearTextLine
                0x00000000004086e8                HUlib_initTextLine
                0x0000000000408708                HUlib_addCharToTextLine
                0x0000000000408735                HUlib_delCharFromTextLine
                0x000000000040875a                HUlib_drawTextLine
                0x000000000040882f                HUlib_eraseTextLine
                0x00000000004088e6                HUlib_initSText
                0x0000000000408953                HUlib_addLineToSText
                0x00000000004089a1                HUlib_addMessageToSText
                0x0000000000408a57                HUlib_drawSText
                0x0000000000408ab1                HUlib_eraseSText
                0x0000000000408b17                HUlib_initIText
                0x0000000000408b4c                HUlib_delCharFromIText
                0x0000000000408b6e                HUlib_eraseLineFromIText
                0x0000000000408b98                HUlib_resetIText
                0x0000000000408bb2                HUlib_addPrefixToIText
                0x0000000000408bef                HUlib_keyInIText
                0x0000000000408c67                HUlib_drawIText
                0x0000000000408c7b                HUlib_eraseIText
 *fill*         0x0000000000408cae        0x2 
 .text          0x0000000000408cb0      0x809 build/hu_stuff.o
                0x0000000000408cb0                HU_Init
                0x0000000000408cfc                HU_Stop
                0x0000000000408d04                HU_Start
                0x0000000000408eb9                HU_Drawer
                0x0000000000408ee6                HU_Erase
                0x0000000000408f06                HU_Ticker
                0x00000000004090bc                HU_queueChatChar
                0x00000000004090f2                HU_dequeueChatChar
                0x0000000000409118                HU_Responder
 *fill*         0x00000000004094b9        0x3 
 .text          0x00000000004094bc        0x1 build/i_endoom.o
                0x00000000004094bc                I_Endoom
 *fill*         0x00000000004094bd        0x3 
 .text          0x00000000004094c0       0xc7 build/i_joystick.o
                0x00000000004094c0                I_ShutdownJoystick
                0x00000000004094c1                I_InitJoystick
                0x00000000004094c2                I_UpdateJoystick
                0x00000000004094c3                I_BindJoystickVariables
 *fill*         0x0000000000409587        0x1 
 .text          0x0000000000409588       0xd4 build/i_sound.o
                0x0000000000409588                I_InitSound
                0x00000000004095a8                I_ShutdownSound
                0x00000000004095a9                I_GetSfxLumpNum
                0x00000000004095ac                I_UpdateSound
                0x00000000004095ad                I_UpdateSoundParams
                0x00000000004095ae                I_StartSound
                0x00000000004095b1                I_StopSound
                0x00000000004095b2                I_SoundIsPlaying
                0x00000000004095b5                I_PrecacheSounds
                0x00000000004095b6                I_InitMusic
                0x00000000004095b7                I_ShutdownMusic
                0x00000000004095b8                I_SetMusicVolume
                0x00000000004095b9                I_PauseSong
                0x00000000004095ba                I_ResumeSong
                0x00000000004095bb                I_RegisterSong
                0x00000000004095be                I_UnRegisterSong
                0x00000000004095bf                I_PlaySong
                0x00000000004095c0                I_StopSong
                0x00000000004095c1                I_MusicIsPlaying
                0x00000000004095c4                I_BindSoundVariables
 .text          0x000000000040965c      0x506 build/i_system.o
                0x000000000040965c                I_AtExit
                0x000000000040968d                I_Tactile
                0x000000000040968e                I_ZoneBase
                0x0000000000409725                I_PrintBanner
                0x000000000040975a                I_PrintDivider
                0x0000000000409779                I_PrintStartupBanner
                0x000000000040979c                I_ConsoleStdout
                0x000000000040979f                I_Quit
                0x00000000004097b6                I_Error
                0x00000000004099e4                I_GetMemoryValue
 *fill*         0x0000000000409b62        0x2 
 .text          0x0000000000409b64       0x58 build/i_timer.o
                0x0000000000409b64                I_GetTicks
                0x0000000000409b6b                I_GetTime
                0x0000000000409b97                I_GetTimeMS
                0x0000000000409bb5                I_Sleep
                0x0000000000409bba                I_WaitVBL
                0x0000000000409bbb                I_InitTimer
 .text          0x0000000000409bbc       0x92 build/m_argv.o
                0x0000000000409bbc                M_CheckParmWithArgs
                0x0000000000409c11                M_ParmExists
                0x0000000000409c24                M_CheckParm
                0x0000000000409c28                M_FindResponseFile
                0x0000000000409c29                M_GetExecutableName
 *fill*         0x0000000000409c4e        0x2 
 .text          0x0000000000409c50       0x33 build/m_bbox.o
                0x0000000000409c50                M_ClearBox
                0x0000000000409c5b                M_AddToBox
 *fill*         0x0000000000409c83        0x1 
 .text          0x0000000000409c84       0xbf build/m_cheat.o
                0x0000000000409c84                cht_CheckCheat
                0x0000000000409d30                cht_GetParam
 *fill*         0x0000000000409d43        0x1 
 .text          0x0000000000409d44      0x33c build/m_config.o
                0x0000000000409d44                M_SetConfigFilenames
                0x0000000000409d53                M_SaveDefaults
                0x0000000000409d54                M_SaveDefaultsAlternate
                0x0000000000409d55                M_LoadDefaults
                0x0000000000409e15                M_BindVariable
                0x0000000000409e78                M_SetVariable
                0x0000000000409f0b                M_GetIntVariable
                0x0000000000409f2f                M_GetStrVariable
                0x0000000000409f53                M_GetFloatVariable
                0x0000000000409f77                M_SetConfigDir
                0x0000000000409fbd                M_GetSaveGameDir
 .text          0x000000000040a080      0x75f build/m_controls.o
                0x000000000040a080                M_BindBaseControls
                0x000000000040a217                M_BindHereticControls
                0x000000000040a2a0                M_BindHexenControls
                0x000000000040a347                M_BindStrifeControls
                0x000000000040a475                M_BindWeaponControls
                0x000000000040a549                M_BindMapControls
                0x000000000040a5ff                M_BindMenuControls
                0x000000000040a778                M_BindChatControls
                0x000000000040a7de                M_ApplyPlatformDefaults
 *fill*         0x000000000040a7df        0x1 
 .text          0x000000000040a7e0       0x45 build/m_fixed.o
                0x000000000040a7e0                FixedMul
                0x000000000040a7ef                FixedDiv
 *fill*         0x000000000040a825        0x3 
 .text          0x000000000040a828     0x1f39 build/m_menu.o
                0x000000000040a828                M_NewGame
                0x000000000040a8b9                M_Options
                0x000000000040a8d3                M_LoadGame
                0x000000000040a938                M_SaveGame
                0x000000000040a9a7                M_ReadThis
                0x000000000040a9c1                M_QuitDOOM
                0x000000000040aa4c                M_DrawMainMenu
                0x000000000040aa6f                M_Episode
                0x000000000040ab0d                M_DrawEpisode
                0x000000000040ab30                M_ChooseSkill
                0x000000000040ab8a                M_DrawNewGame
                0x000000000040abce                M_EndGame
                0x000000000040ac55                M_ChangeMessages
                0x000000000040ac95                M_ChangeDetail
                0x000000000040acde                M_SizeDisplay
                0x000000000040ad25                M_ChangeSensitivity
                0x000000000040ad50                M_Sound
                0x000000000040ad6a                M_DrawOptions
                0x000000000040ae4b                M_ReadThis2
                0x000000000040ae8f                M_DrawReadThis1
                0x000000000040af46                M_FinishReadThis
                0x000000000040af60                M_DrawReadThis2
                0x000000000040af87                M_SfxVol
                0x000000000040afc5                M_MusicVol
                0x000000000040b003                M_DrawSound
                0x000000000040b068                M_LoadSelect
                0x000000000040b0a3                M_DrawLoad
                0x000000000040b113                M_SaveSelect
                0x000000000040b169                M_DrawSave
                0x000000000040b222                M_ReadSaveStrings
                0x000000000040b2cb                M_DrawSaveLoadBorder
                0x000000000040b355                M_WriteText
                0x000000000040b3c5                M_ClearMenus
                0x000000000040b3d0                M_StartMessage
                0x000000000040b402                M_SetupNextMenu
                0x000000000040b415                M_StringWidth
                0x000000000040b47b                M_DoSave
                0x000000000040b4ad                M_QuickSaveResponse
                0x000000000040b4f7                M_QuickSave
                0x000000000040b5d9                M_StartControlPanel
                0x000000000040b607                M_QuickLoadResponse
                0x000000000040b629                M_QuickLoad
                0x000000000040b6b7                M_DrawThermo
                0x000000000040b776                M_VerifyNightmare
                0x000000000040b7a5                M_EndGameResponse
                0x000000000040b7cf                M_QuitResponse
                0x000000000040b826                M_DrawEmptyCell
                0x000000000040b85e                M_DrawSelCell
                0x000000000040b896                M_StopMessage
                0x000000000040b8ad                M_StringHeight
                0x000000000040b907                M_Responder
                0x000000000040c461                M_Drawer
                0x000000000040c687                M_Ticker
                0x000000000040c6ae                M_Init
 *fill*         0x000000000040c761        0x3 
 .text          0x000000000040c764      0x7ad build/m_misc.o
                0x000000000040c764                M_MakeDirectory
                0x000000000040c76e                M_FileExists
                0x000000000040c79f                M_FileLength
                0x000000000040c7df                M_WriteFile
                0x000000000040c82c                M_ReadFile
                0x000000000040c8ca                M_TempFile
                0x000000000040c8dd                M_StringJoin
                0x000000000040ca5a                M_StrToInt
                0x000000000040cacd                M_ExtractFileBase
                0x000000000040cb4e                M_ForceUppercase
                0x000000000040cb83                M_StrCaseStr
                0x000000000040cbe0                M_StringDuplicate
                0x000000000040cc19                M_StringReplace
                0x000000000040cd27                M_StringCopy
                0x000000000040cd68                M_StringConcat
                0x000000000040cd98                M_StringStartsWith
                0x000000000040cdda                M_StringEndsWith
                0x000000000040ce1f                M_vsnprintf
                0x000000000040ce5c                M_snprintf
 *fill*         0x000000000040cf11        0x3 
 .text          0x000000000040cf14       0x41 build/m_random.o
                0x000000000040cf14                P_Random
                0x000000000040cf2d                M_Random
                0x000000000040cf46                M_ClearRandom
 *fill*         0x000000000040cf55        0x3 
 .text          0x000000000040cf58      0x3f7 build/p_ceilng.o
                0x000000000040cf58                T_MoveCeiling
                0x000000000040d09d                P_RemoveActiveCeiling
                0x000000000040d0e0                EV_DoCeiling
                0x000000000040d2ae                P_ActivateInStasisCeiling
                0x000000000040d2e5                P_AddActiveCeiling
                0x000000000040d305                EV_CeilingCrushStop
 *fill*         0x000000000040d34f        0x1 
 .text          0x000000000040d350      0x731 build/p_doors.o
                0x000000000040d350                T_VerticalDoor
                0x000000000040d4d7                EV_DoLockedDoor
                0x000000000040d580                EV_DoDoor
                0x000000000040d753                EV_VerticalDoor
                0x000000000040d9b4                P_SpawnDoorCloseIn30
                0x000000000040da0c                P_SpawnDoorRaiseIn5Mins
 *fill*         0x000000000040da81        0x3 
 .text          0x000000000040da84     0x1fea build/p_enemy.o
                0x000000000040da84                P_RecursiveSound
                0x000000000040db4c                P_NoiseAlert
                0x000000000040db67                P_CheckMeleeRange
                0x000000000040dbc1                P_CheckMissileRange
                0x000000000040dca2                P_Move
                0x000000000040ddc1                P_TryWalk
                0x000000000040dde7                P_NewChaseDir
                0x000000000040dfd5                P_LookForPlayers
                0x000000000040e0b9                A_KeenDie
                0x000000000040e126                A_Fall
                0x000000000040e12e                A_Look
                0x000000000040e1fe                A_Chase
                0x000000000040e40e                A_FaceTarget
                0x000000000040e466                A_PosAttack
                0x000000000040e50e                A_SPosAttack
                0x000000000040e5b4                A_CPosAttack
                0x000000000040e65c                A_CPosRefire
                0x000000000040e6a5                A_SpidRefire
                0x000000000040e6ee                A_BspiAttack
                0x000000000040e71b                A_TroopAttack
                0x000000000040e78e                A_SargAttack
                0x000000000040e7ee                A_HeadAttack
                0x000000000040e865                A_CyberAttack
                0x000000000040e892                A_BruisAttack
                0x000000000040e900                A_SkelMissile
                0x000000000040e954                A_Tracer
                0x000000000040eac0                A_SkelWhoosh
                0x000000000040eae6                A_SkelFist
                0x000000000040eb63                PIT_VileCheck
                0x000000000040ebf7                A_VileChase
                0x000000000040ed65                A_VileStart
                0x000000000040ed6f                A_StartFire
                0x000000000040ed83                A_Fire
                0x000000000040ee21                A_FireCrackle
                0x000000000040ee38                A_VileTarget
                0x000000000040ee8e                A_VileAttack
                0x000000000040ef7d                A_FatRaise
                0x000000000040ef94                A_FatAttack1
                0x000000000040f024                A_FatAttack2
                0x000000000040f0b8                A_FatAttack3
                0x000000000040f19d                A_SkullAttack
                0x000000000040f257                A_PainShootSkull
                0x000000000040f368                A_PainAttack
                0x000000000040f38c                A_PainDie
                0x000000000040f3c7                A_Scream
                0x000000000040f436                A_XScream
                0x000000000040f440                A_Pain
                0x000000000040f453                A_Explode
                0x000000000040f464                A_BossDeath
                0x000000000040f685                A_Hoof
                0x000000000040f69c                A_Metal
                0x000000000040f6b3                A_BabyMetal
                0x000000000040f6ca                A_OpenShotgun2
                0x000000000040f6d7                A_LoadShotgun2
                0x000000000040f6e4                A_CloseShotgun2
                0x000000000040f70d                A_BrainAwake
                0x000000000040f76c                A_BrainPain
                0x000000000040f778                A_BrainScream
                0x000000000040f818                A_BrainExplode
                0x000000000040f896                A_BrainDie
                0x000000000040f89b                A_BrainSpit
                0x000000000040f924                A_SpawnSound
                0x000000000040f938                A_SpawnFly
                0x000000000040fa4b                A_PlayerScream
 *fill*         0x000000000040fa6e        0x2 
 .text          0x000000000040fa70      0x79a build/p_floor.o
                0x000000000040fa70                T_MovePlane
                0x000000000040fbb0                T_MoveFloor
                0x000000000040fc4f                EV_DoFloor
                0x000000000041002d                EV_BuildStairs
 *fill*         0x000000000041020a        0x2 
 .text          0x000000000041020c      0xf07 build/p_inter.o
                0x000000000041020c                P_GiveAmmo
                0x000000000041033a                P_GiveWeapon
                0x0000000000410449                P_GiveBody
                0x0000000000410472                P_GiveArmor
                0x0000000000410488                P_GiveCard
                0x00000000004104a5                P_GivePower
                0x000000000041052a                P_TouchSpecialThing
                0x0000000000410c62                P_KillMobj
                0x0000000000410e14                P_DamageMobj
 *fill*         0x0000000000411113        0x1 
 .text          0x0000000000411114      0x3fc build/p_lights.o
                0x0000000000411114                T_FireFlicker
                0x000000000041114b                P_SpawnFireFlicker
                0x00000000004111a6                T_LightFlash
                0x00000000004111e3                P_SpawnLightFlash
                0x000000000041124f                T_StrobeFlash
                0x0000000000411280                P_SpawnStrobeFlash
                0x0000000000411306                EV_StartLightStrobing
                0x000000000041134f                EV_TurnTagLightsOff
                0x00000000004113d2                EV_LightTurnOn
                0x0000000000411460                T_Glow
                0x00000000004114b3                P_SpawnGlowingLight
 .text          0x0000000000411510     0x1551 build/p_map.o
                0x0000000000411510                PIT_StompThing
                0x000000000041158a                P_TeleportMove
                0x0000000000411710                PIT_CheckLine
                0x00000000004118b8                PIT_CheckThing
                0x0000000000411a64                P_CheckPosition
                0x0000000000411c3a                P_TryMove
                0x0000000000411dae                P_ThingHeightClip
                0x0000000000411e07                P_HitSlideLine
                0x0000000000411ef3                PTR_SlideTraverse
                0x0000000000411fae                P_SlideMove
                0x0000000000412199                PTR_AimTraverse
                0x000000000041231f                PTR_ShootTraverse
                0x0000000000412626                P_AimLineAttack
                0x00000000004126c3                P_LineAttack
                0x000000000041273d                PTR_UseTraverse
                0x00000000004127a5                P_UseLines
                0x00000000004127ea                PIT_RadiusAttack
                0x0000000000412878                P_RadiusAttack
                0x000000000041290f                PIT_ChangeSector
                0x00000000004129f6                P_ChangeSector
 *fill*         0x0000000000412a61        0x3 
 .text          0x0000000000412a64      0xaa1 build/p_maputl.o
                0x0000000000412a64                P_AproxDistance
                0x0000000000412a7f                P_PointOnLineSide
                0x0000000000412af6                P_BoxOnLineSide
                0x0000000000412ba6                P_PointOnDivlineSide
                0x0000000000412c29                P_MakeDivline
                0x0000000000412c43                P_InterceptVector
                0x0000000000412cbb                P_LineOpening
                0x0000000000412d07                P_UnsetThingPosition
                0x0000000000412da4                P_SetThingPosition
                0x0000000000412e50                P_BlockLinesIterator
                0x0000000000412ef0                P_BlockThingsIterator
                0x0000000000412f48                PIT_AddLineIntercepts
                0x00000000004130b9                PIT_AddThingIntercepts
                0x000000000041318b                P_TraverseIntercepts
                0x0000000000413225                P_PathTraverse
 *fill*         0x0000000000413505        0x3 
 .text          0x0000000000413508     0x110f build/p_mobj.o
                0x0000000000413508                P_SetMobjState
                0x000000000041358b                P_RemoveMobj
                0x000000000041361c                P_ExplodeMissile
                0x0000000000413682                P_XYMovement
                0x000000000041393f                P_ZMovement
                0x0000000000413aec                P_NightmareRespawn
                0x0000000000413c07                P_SpawnMobj
                0x0000000000413d44                P_MobjThinker
                0x0000000000413dfb                P_RespawnSpecials
                0x0000000000413f1b                P_SpawnPlayer
                0x000000000041404f                P_SpawnMapThing
                0x000000000041424c                P_SpawnPuff
                0x00000000004142d8                P_SpawnBlood
                0x000000000041436e                P_CheckMissileSpawn
                0x00000000004143c7                P_SubstNullMobj
                0x00000000004143ee                P_SpawnMissile
                0x00000000004144fe                P_SpawnPlayerMissile
 *fill*         0x0000000000414617        0x1 
 .text          0x0000000000414618      0x4f9 build/p_plats.o
                0x0000000000414618                T_PlatRaise
                0x000000000041474c                P_RemoveActivePlat
                0x00000000004147a0                EV_DoPlat
                0x0000000000414a76                P_ActivateInStasis
                0x0000000000414aa9                P_AddActivePlat
                0x0000000000414ad4                EV_StopPlat
 *fill*         0x0000000000414b11        0x3 
 .text          0x0000000000414b14      0xb8a build/p_pspr.o
                0x0000000000414b14                P_SetPsprite
                0x0000000000414ba8                P_CalcSwing
                0x0000000000414bf5                P_BringUpWeapon
                0x0000000000414c51                P_CheckAmmo
                0x0000000000414d69                P_FireWeapon
                0x0000000000414da9                P_DropWeapon
                0x0000000000414dbe                A_WeaponReady
                0x0000000000414ecb                A_ReFire
                0x0000000000414efa                A_CheckReload
                0x0000000000414eff                A_Lower
                0x0000000000414f3d                A_Raise
                0x0000000000414f6d                A_GunFlash
                0x0000000000414f9a                A_Punch
                0x0000000000415060                A_Saw
                0x000000000041516d                A_FireMissile
                0x0000000000415190                A_FireBFG
                0x00000000004151b4                A_FirePlasma
                0x0000000000415203                P_BulletSlope
                0x0000000000415274                P_GunShot
                0x00000000004152e5                A_FirePistol
                0x000000000041534b                A_FireShotgun
                0x00000000004153b7                A_FireShotgun2
                0x00000000004154a8                A_FireCGun
                0x0000000000415558                A_Light0
                0x0000000000415563                A_Light1
                0x000000000041556e                A_Light2
                0x0000000000415579                A_BFGSpray
                0x0000000000415619                A_BFGsound
                0x0000000000415626                P_SetupPsprites
                0x000000000041564d                P_MovePsprites
 *fill*         0x000000000041569e        0x2 
 .text          0x00000000004156a0     0x1b4c build/p_saveg.o
                0x00000000004156a0                P_TempSaveGameFile
                0x00000000004156cf                P_SaveGameFile
                0x0000000000415754                P_WriteSaveGameHeader
                0x0000000000415891                P_ReadSaveGameHeader
                0x00000000004159d0                P_ReadSaveGameEOF
                0x00000000004159e1                P_WriteSaveGameEOF
                0x00000000004159eb                P_ArchivePlayers
                0x0000000000415d6b                P_UnArchivePlayers
                0x00000000004160ca                P_ArchiveWorld
                0x00000000004162cb                P_UnArchiveWorld
                0x0000000000416506                P_ArchiveThinkers
                0x000000000041675c                P_UnArchiveThinkers
                0x0000000000416a4b                P_ArchiveSpecials
                0x0000000000416d75                P_UnArchiveSpecials
 .text          0x00000000004171ec      0xe57 build/p_setup.o
                0x00000000004171ec                P_LoadVertexes
                0x000000000041725e                GetSectorAtNullAddress
                0x00000000004172da                P_LoadSegs
                0x0000000000417449                P_LoadSubsectors
                0x00000000004174db                P_LoadSectors
                0x00000000004175c9                P_LoadNodes
                0x00000000004176bb                P_LoadThings
                0x000000000041777d                P_LoadLineDefs
                0x0000000000417987                P_LoadSideDefs
                0x0000000000417a78                P_LoadBlockMap
                0x0000000000417b07                P_GroupLines
                0x0000000000417d6d                P_SetupLevel
                0x000000000041802d                P_Init
 *fill*         0x0000000000418043        0x1 
 .text          0x0000000000418044      0x430 build/p_sight.o
                0x0000000000418044                P_DivlineSide
                0x00000000004180a6                P_InterceptVector2
                0x000000000041811e                P_CrossSubsector
                0x0000000000418314                P_CrossBSPNode
                0x00000000004183ac                P_CheckSight
 .text          0x0000000000418474      0xecc build/p_spec.o
                0x0000000000418474                P_InitPicAnims
                0x0000000000418552                getSide
                0x0000000000418585                getSector
                0x00000000004185b9                twoSided
                0x00000000004185db                getNextSector
                0x00000000004185f3                P_FindLowestFloorSurrounding
                0x0000000000418630                P_FindHighestFloorSurrounding
                0x0000000000418676                P_FindNextHighestFloor
                0x000000000041873a                P_FindLowestCeilingSurrounding
                0x0000000000418781                P_FindHighestCeilingSurrounding
                0x00000000004187c2                P_FindSectorFromLineTag
                0x0000000000418805                P_FindMinSurroundingLight
                0x0000000000418844                P_CrossSpecialLine
                0x0000000000418bec                P_ShootSpecialLine
                0x0000000000418c54                P_PlayerInSpecialSector
                0x0000000000418d36                P_UpdateSpecials
                0x0000000000418eb5                EV_DoDonut
                0x0000000000419193                P_SpawnSpecials
 .text          0x0000000000419340      0x580 build/p_switch.o
                0x0000000000419340                P_InitSwitchList
                0x00000000004193e3                P_StartButton
                0x0000000000419447                P_ChangeSwitchTexture
                0x00000000004195bd                P_UseSpecialLine
 .text          0x00000000004198c0      0x19a build/p_telept.o
                0x00000000004198c0                EV_Teleport
 *fill*         0x0000000000419a5a        0x2 
 .text          0x0000000000419a5c      0x11e build/p_tick.o
                0x0000000000419a5c                P_InitThinkers
                0x0000000000419a74                P_AddThinker
                0x0000000000419a92                P_RemoveThinker
                0x0000000000419a9b                P_AllocateThinker
                0x0000000000419a9c                P_RunThinkers
                0x0000000000419af7                P_Ticker
 *fill*         0x0000000000419b7a        0x2 
 .text          0x0000000000419b7c      0x4b4 build/p_user.o
                0x0000000000419b7c                P_Thrust
                0x0000000000419bba                P_CalcHeight
                0x0000000000419cc2                P_MovePlayer
                0x0000000000419d53                P_DeathThink
                0x0000000000419e1f                P_PlayerThink
 .text          0x000000000041a030      0x571 build/r_bsp.o
                0x000000000041a030                R_ClearDrawSegs
                0x000000000041a03c                R_ClipSolidWallSegment
                0x000000000041a174                R_ClipPassWallSegment
                0x000000000041a1e0                R_ClearClipSegs
                0x000000000041a20d                R_AddLine
                0x000000000041a324                R_CheckBBox
                0x000000000041a441                R_Subsector
                0x000000000041a519                R_RenderBSPNode
 *fill*         0x000000000041a5a1        0x3 
 .text          0x000000000041a5a4      0xeda build/r_data.o
                0x000000000041a5a4                R_DrawColumnInCache
                0x000000000041a618                R_GenerateComposite
                0x000000000041a756                R_GenerateLookup
                0x000000000041a908                R_GetColumn
                0x000000000041a978                R_InitTextures
                0x000000000041aed3                R_InitFlats
                0x000000000041af40                R_InitSpriteLumps
                0x000000000041b035                R_InitColormaps
                0x000000000041b055                R_InitData
                0x000000000041b0a2                R_FlatNumForName
                0x000000000041b0e3                R_CheckTextureNumForName
                0x000000000041b143                R_TextureNumForName
                0x000000000041b16d                R_PrecacheLevel
 *fill*         0x000000000041b47e        0x2 
 .text          0x000000000041b480      0xbeb build/r_draw.o
                0x000000000041b480                R_DrawColumn
                0x000000000041b537                R_DrawColumnLow
                0x000000000041b603                R_DrawFuzzColumn
                0x000000000041b6e5                R_DrawFuzzColumnLow
                0x000000000041b801                R_DrawTranslatedColumn
                0x000000000041b8c2                R_DrawTranslatedColumnLow
                0x000000000041b9b8                R_InitTranslationTables
                0x000000000041ba53                R_DrawSpan
                0x000000000041bb28                R_DrawSpanLow
                0x000000000041bc2d                R_InitBuffer
                0x000000000041bca5                R_FillBackScreen
                0x000000000041bf44                R_VideoErase
                0x000000000041bf68                R_DrawViewBorder
 *fill*         0x000000000041c06b        0x1 
 .text          0x000000000041c06c      0x938 build/r_main.o
                0x000000000041c06c                R_AddPointToBox
                0x000000000041c08b                R_PointOnSide
                0x000000000041c108                R_PointOnSegSide
                0x000000000041c192                R_PointToAngle
                0x000000000041c276                R_PointToAngle2
                0x000000000041c28b                R_PointToDist
                0x000000000041c2e4                R_InitPointToAngle
                0x000000000041c2e5                R_ScaleFromGlobalAngle
                0x000000000041c368                R_InitTables
                0x000000000041c369                R_InitTextureMapping
                0x000000000041c470                R_InitLightTables
                0x000000000041c501                R_SetViewSize
                0x000000000041c518                R_ExecuteSetViewSize
                0x000000000041c7b1                R_Init
                0x000000000041c835                R_PointInSubsector
                0x000000000041c892                R_SetupFrame
                0x000000000041c95e                R_RenderPlayerView
 .text          0x000000000041c9a4      0x718 build/r_plane.o
                0x000000000041c9a4                R_InitPlanes
                0x000000000041c9a5                R_MapPlane
                0x000000000041cb2e                R_ClearPlanes
                0x000000000041cbdb                R_FindPlane
                0x000000000041cc99                R_CheckPlane
                0x000000000041cd27                R_MakeSpans
                0x000000000041ce4c                R_DrawPlanes
 .text          0x000000000041d0bc      0xd8c build/r_segs.o
                0x000000000041d0bc                R_RenderMaskedSegRange
                0x000000000041d2d9                R_RenderSegLoop
                0x000000000041d5f0                R_StoreWallRange
 .text          0x000000000041de48        0xb build/r_sky.o
                0x000000000041de48                R_InitSkyMap
 *fill*         0x000000000041de53        0x1 
 .text          0x000000000041de54     0x1040 build/r_things.o
                0x000000000041de54                R_InstallSpriteLump
                0x000000000041df98                R_InitSpriteDefs
                0x000000000041e23d                R_InitSprites
                0x000000000041e25e                R_ClearSprites
                0x000000000041e26a                R_NewVisSprite
                0x000000000041e28d                R_DrawMaskedColumn
                0x000000000041e360                R_DrawVisSprite
                0x000000000041e48c                R_ProjectSprite
                0x000000000041e775                R_AddSprites
                0x000000000041e7e0                R_DrawPSprite
                0x000000000041e9ca                R_DrawPlayerSprites
                0x000000000041ea60                R_SortVisSprites
                0x000000000041eb70                R_DrawSprite
                0x000000000041edff                R_DrawMasked
 .text          0x000000000041ee94     0x145e build/sha1.o
                0x000000000041ee94                SHA1_Init
                0x000000000041eeaf                SHA1_Update
                0x00000000004200ef                SHA1_Final
                0x00000000004202a0                SHA1_UpdateInt32
                0x00000000004202ca                SHA1_UpdateString
 *fill*         0x00000000004202f2        0x2 
 .text          0x00000000004202f4       0x4d build/statdump.o
                0x00000000004202f4                StatCopy
                0x0000000000420340                StatDump
 *fill*         0x0000000000420341        0x3 
 .text          0x0000000000420344      0x3ee build/st_lib.o
                0x0000000000420344                STlib_init
                0x000000000042035d                STlib_initNum
                0x000000000042037d                STlib_drawNum
                0x0000000000420515                STlib_updateNum
                0x0000000000420523                STlib_initPercent
                0x0000000000420546                STlib_updatePercent
                0x0000000000420579                STlib_initMultIcon
                0x0000000000420592                STlib_updateMultIcon
                0x0000000000420665                STlib_initBinIcon
                0x000000000042067e                STlib_updateBinIcon
 *fill*         0x0000000000420732        0x2 
 .text          0x0000000000420734     0x19c0 build/st_stuff.o
                0x0000000000420734                ST_refreshBackground
                0x00000000004207a2                ST_Responder
                0x0000000000420c94                ST_calcPainOffset
                0x0000000000420ce4                ST_updateFaceWidget
                0x00000000004211f1                ST_updateWidgets
                0x000000000042134e                ST_Ticker
                0x0000000000421377                ST_doPaletteStuff
                0x0000000000421439                ST_drawWidgets
                0x0000000000421537                ST_doRefresh
                0x0000000000421552                ST_diffDraw
                0x0000000000421559                ST_Drawer
                0x00000000004215b5                ST_loadGraphics
                0x00000000004218bd                ST_loadData
                0x00000000004218d4                ST_unloadGraphics
                0x0000000000421bb1                ST_unloadData
                0x0000000000421bb6                ST_initData
                0x0000000000421c40                ST_createWidgets
                0x0000000000421fef                ST_Start
                0x0000000000422096                ST_Stop
                0x00000000004220c4                ST_Init
 .text          0x00000000004220f4      0x792 build/s_sound.o
                0x00000000004220f4                S_Init
                0x00000000004221a1                S_SetSfxVolume
                0x00000000004221c2                S_SetMusicVolume
                0x00000000004221e3                S_Shutdown
                0x00000000004221ef                S_Start
                0x00000000004222cc                S_ChangeMusic
                0x00000000004223a2                S_StopSound
                0x00000000004223db                S_StartSound
                0x0000000000422702                S_PauseSound
                0x0000000000422727                S_ResumeSound
                0x000000000042274c                S_UpdateSounds
                0x0000000000422824                S_StartMusic
                0x000000000042282b                S_StopMusic
                0x0000000000422881                S_MusicPlaying
 *fill*         0x0000000000422886        0x2 
 .text          0x0000000000422888       0x26 build/tables.o
                0x0000000000422888                SlopeDiv
 *fill*         0x00000000004228ae        0x2 
 .text          0x00000000004228b0      0xf17 build/v_video.o
                0x00000000004228b0                V_MarkRect
                0x0000000000422911                V_CopyRect
                0x00000000004229f5                V_SetPatchClipCallback
                0x00000000004229fd                V_DrawPatch
                0x0000000000422b3d                V_DrawPatchFlipped
                0x0000000000422c6b                V_DrawPatchDirect
                0x0000000000422c70                V_DrawTLPatch
                0x0000000000422d7d                V_DrawXlaPatch
                0x0000000000422e6b                V_DrawAltTLPatch
                0x0000000000422f78                V_DrawShadowedPatch
                0x000000000042309f                V_LoadTintTable
                0x00000000004230b8                V_LoadXlaTable
                0x00000000004230d1                V_DrawBlock
                0x0000000000423174                V_DrawFilledBox
                0x00000000004231c9                V_DrawHorizLine
                0x00000000004231f1                V_DrawVertLine
                0x0000000000423218                V_DrawBox
                0x00000000004232e8                V_DrawRawScreen
                0x00000000004232ff                V_Init
                0x0000000000423300                V_UseBuffer
                0x0000000000423308                V_RestoreBuffer
                0x0000000000423317                WritePCXfile
                0x000000000042341c                V_ScreenShot
                0x000000000042349c                V_DrawMouseSpeedBox
 *fill*         0x00000000004237c7        0x1 
 .text          0x00000000004237c8     0x234f build/wi_stuff.o
                0x00000000004237c8                WI_slamBackground
                0x00000000004237d8                WI_Responder
                0x00000000004237db                WI_drawLF
                0x00000000004238ae                WI_drawEL
                0x0000000000423919                WI_drawOnLnode
                0x00000000004239e7                WI_initAnimatedBack
                0x0000000000423aae                WI_updateAnimatedBack
                0x0000000000423bbe                WI_drawAnimatedBack
                0x0000000000423c2e                WI_drawNum
                0x0000000000423d1a                WI_drawPercent
                0x0000000000423d54                WI_drawTime
                0x0000000000423e0f                WI_End
                0x0000000000423e11                WI_unloadData
                0x0000000000424200                WI_initNoState
                0x000000000042421c                WI_updateNoState
                0x0000000000424232                WI_initShowNextLoc
                0x0000000000424252                WI_updateShowNextLoc
                0x00000000004242a1                WI_drawShowNextLoc
                0x0000000000424356                WI_drawNoState
                0x0000000000424365                WI_fragSum
                0x00000000004243b2                WI_initDeathmatchStats
                0x0000000000424423                WI_updateDeathmatchStats
                0x00000000004246a3                WI_drawDeathmatchStats
                0x0000000000424898                WI_initNetgameStats
                0x000000000042495a                WI_updateNetgameStats
                0x0000000000424d37                WI_drawNetgameStats
                0x0000000000424fa7                WI_initStats
                0x0000000000424ff4                WI_updateStats
                0x0000000000425337                WI_drawStats
                0x000000000042545a                WI_checkForAccelerate
                0x00000000004254bc                WI_Ticker
                0x000000000042553a                WI_loadData
                0x00000000004259ed                WI_Drawer
                0x0000000000425a34                WI_initVariables
                0x0000000000425aa0                WI_Start
 *fill*         0x0000000000425b17        0x1 
 .text          0x0000000000425b18      0x10f build/w_checksum.o
                0x0000000000425b18                W_Checksum
 *fill*         0x0000000000425c27        0x1 
 .text          0x0000000000425c28       0x27 build/w_file.o
                0x0000000000425c28                W_OpenFile
                0x0000000000425c40                W_CloseFile
                0x0000000000425c46                W_Read
 *fill*         0x0000000000425c4f        0x1 
 .text          0x0000000000425c50       0x83 build/w_main.o
                0x0000000000425c50                W_ParseCommandLine
 *fill*         0x0000000000425cd3        0x1 
 .text          0x0000000000425cd4      0x71d build/w_wad.o
                0x0000000000425cd4                W_LumpNameHash
                0x0000000000425d06                W_AddFile
                0x0000000000425fb3                W_NumLumps
                0x0000000000425fba                W_CheckNumForName
                0x0000000000426092                W_GetNumForName
                0x00000000004260bb                W_LumpLength
                0x00000000004260e7                W_ReadLump
                0x0000000000426161                W_CacheLumpNum
                0x0000000000426222                W_CacheLumpName
                0x0000000000426234                W_ReleaseLumpNum
                0x0000000000426283                W_ReleaseLumpName
                0x000000000042628e                W_GenerateHashTable
                0x0000000000426371                W_CheckCorrectIWAD
 *fill*         0x00000000004263f1        0x3 
 .text          0x00000000004263f4      0x5d5 build/z_zone.o
                0x00000000004263f4                Z_ClearZone
                0x000000000042642b                Z_Init
                0x0000000000426482                Z_Free
                0x000000000042652a                Z_Malloc
                0x0000000000426645                Z_FreeTags
                0x0000000000426695                Z_DumpHeap
                0x0000000000426767                Z_FileDumpHeap
                0x0000000000426882                Z_CheckHeap
                0x000000000042690c                Z_ChangeTag2
                0x0000000000426965                Z_ChangeUser
                0x0000000000426993                Z_FreeMemory
                0x00000000004269bf                Z_ZoneSize
 *fill*         0x00000000004269c9        0x3 
 .text          0x00000000004269cc       0xa1 build/w_file_stdc.o
                0x00000000004269cc                W_StdC_Read
 *fill*         0x0000000000426a6d        0x3 
 .text          0x0000000000426a70       0xd8 build/i_input.o
                0x0000000000426a70                I_GetEvent
                0x0000000000426b47                I_InitInput
 .text          0x0000000000426b48      0x43a build/i_video.o
                0x0000000000426b48                cmap_to_rgb565
                0x0000000000426b9c                cmap_to_fb
                0x0000000000426c7a                I_InitGraphics
                0x0000000000426df5                I_ShutdownGraphics
                0x0000000000426e01                I_StartFrame
                0x0000000000426e02                I_StartTic
                0x0000000000426e07                I_UpdateNoBlit
                0x0000000000426e08                I_FinishUpdate
                0x0000000000426eca                I_ReadScreen
                0x0000000000426edb                I_SetPalette
                0x0000000000426f2b                I_GetPaletteIndex
                0x0000000000426f75                I_BeginRead
                0x0000000000426f76                I_EndRead
                0x0000000000426f77                I_SetWindowTitle
                0x0000000000426f7c                I_GraphicsCheckCommandLine
                0x0000000000426f7d                I_SetGrabMouseCallback
                0x0000000000426f7e                I_EnableLoadingDisk
                0x0000000000426f7f                I_BindVideoVariables
                0x0000000000426f80                I_DisplayFPSDots
                0x0000000000426f81                I_CheckIsScreensaver
 *fill*         0x0000000000426f82        0x2 
 .text          0x0000000000426f84       0x31 build/doomgeneric.o
                0x0000000000426f84                doomgeneric_Create
 *fill*         0x0000000000426fb5        0x3 
 .text          0x0000000000426fb8      0x3bc build/doomgeneric_xlib.o
                0x0000000000426fb8                DG_Init
                0x000000000042711b                DG_DrawFrame
                0x0000000000427295                DG_SleepMs
                0x00000000004272a0                DG_GetTicksMs
                0x00000000004272e1                DG_GetKey
                0x0000000000427314                DG_SetWindowTitle
                0x0000000000427365                main
 *fill*         0x0000000000427374        0xc 
 .text          0x0000000000427380       0x72 /usr/lib/x86_64-linux-gnu/libc_nonshared.a(elf-init.oS)
                0x0000000000427380                __libc_csu_init
                0x00000000004273f0                __libc_csu_fini
 *(.gnu.warning)

.fini           0x00000000004273f4        0x9
 *(SORT_NONE(.fini))
 .fini          0x00000000004273f4        0x4 /usr/bin/../lib/gcc/x86_64-linux-gnu/7.5.0/../../../x86_64-linux-gnu/crti.o
                0x00000000004273f4                _fini
 .fini          0x00000000004273f8        0x5 /usr/bin/../lib/gcc/x86_64-linux-gnu/7.5.0/../../../x86_64-linux-gnu/crtn.o
                [!provide]                        PROVIDE (__etext = .)
                [!provide]                        PROVIDE (_etext = .)
                [!provide]                        PROVIDE (etext = .)

.rodata         0x0000000000427400    0x19320
 *(.rodata .rodata.* .gnu.linkonce.r.*)
 .rodata.str1.1
                0x0000000000427400       0x67 build/am_map.o
 *fill*         0x0000000000427467        0x9 
 .rodata.cst32  0x0000000000427470       0x20 build/am_map.o
 .rodata.cst16  0x0000000000427490       0x10 build/am_map.o
 .rodata.str1.1
                0x00000000004274a0      0x328 build/dstrings.o
 .rodata.str1.1
                0x00000000004277c8      0x189 build/d_iwad.o
                                        0x1a6 (size before relaxing)
 *fill*         0x0000000000427951        0xf 
 .rodata        0x0000000000427960      0x150 build/d_iwad.o
 .rodata.str1.16
                0x0000000000427ab0       0x2d build/d_iwad.o
 .rodata.str1.1
                0x0000000000427add       0x54 build/d_loop.o
 *fill*         0x0000000000427b31        0xf 
 .rodata.str1.16
                0x0000000000427b40       0x1a build/d_loop.o
 *fill*         0x0000000000427b5a        0x6 
 .rodata        0x0000000000427b60      0x240 build/d_main.o
 .rodata.cst16  0x0000000000427da0       0x10 build/d_main.o
 .rodata.str1.1
                0x0000000000427db0      0x4ed build/d_main.o
                                        0x53b (size before relaxing)
 *fill*         0x000000000042829d        0x3 
 .rodata.str1.16
                0x00000000004282a0      0x4d9 build/d_main.o
 *fill*         0x0000000000428779        0x7 
 .rodata        0x0000000000428780      0x188 build/d_mode.o
 .rodata.str1.1
                0x0000000000428908       0x1a build/d_mode.o
                                         0x3c (size before relaxing)
 .rodata.str1.1
                0x0000000000428922       0xb3 build/d_net.o
                                         0xcb (size before relaxing)
 *fill*         0x00000000004289d5        0xb 
 .rodata.str1.16
                0x00000000004289e0       0xaa build/d_net.o
 *fill*         0x0000000000428a8a        0x6 
 .rodata        0x0000000000428a90       0x20 build/f_finale.o
 .rodata.str1.1
                0x0000000000428ab0     0x1ef5 build/f_finale.o
                                       0x1f08 (size before relaxing)
 *fill*         0x000000000042a9a5        0xb 
 .rodata        0x000000000042a9b0       0x30 build/f_wipe.o
 .rodata        0x000000000042a9e0      0x1e8 build/g_game.o
 *fill*         0x000000000042abc8        0x8 
 .rodata.cst16  0x000000000042abd0       0x10 build/g_game.o
 .rodata.cst4   0x000000000042abe0        0x4 build/g_game.o
 .rodata.str1.1
                0x000000000042abe4      0x348 build/g_game.o
                                        0x369 (size before relaxing)
 *fill*         0x000000000042af2c        0x4 
 .rodata        0x000000000042af30       0x20 build/hu_stuff.o
 .rodata.str1.1
                0x000000000042af50      0xc0f build/hu_stuff.o
 .rodata.str1.1
                0x000000000042bb5f      0x2a3 build/info.o
                                        0x2b2 (size before relaxing)
 .rodata.str1.1
                0x000000000042be02       0xa7 build/i_joystick.o
 .rodata.str1.1
                0x000000000042bea9       0x9e build/i_sound.o
                                         0x9f (size before relaxing)
 .rodata.str1.1
                0x000000000042bf47       0xfb build/i_system.o
 .rodata        0x000000000042c042       0x1e build/i_system.o
 .rodata.str1.16
                0x000000000042c060      0x116 build/i_system.o
 *fill*         0x000000000042c176        0xa 
 .rodata.cst16  0x000000000042c180       0x10 build/m_bbox.o
 .rodata        0x000000000042c190      0x230 build/m_config.o
 .rodata.str1.1
                0x000000000042c3c0      0xa6e build/m_config.o
                                        0xc1c (size before relaxing)
 .rodata.str1.1
                0x000000000042ce2e       0x16 build/m_controls.o
                                        0x630 (size before relaxing)
 .rodata.str1.1
                0x000000000042ce44      0x3f7 build/m_menu.o
                                        0x40f (size before relaxing)
 *fill*         0x000000000042d23b        0x5 
 .rodata        0x000000000042d240       0x20 build/m_menu.o
 .rodata.str1.1
                0x000000000042d260       0xde build/m_misc.o
                                         0xec (size before relaxing)
 *fill*         0x000000000042d33e        0x2 
 .rodata        0x000000000042d340      0x100 build/m_random.o
 .rodata        0x000000000042d440       0x60 build/p_ceilng.o
 .rodata        0x000000000042d4a0       0xa0 build/p_doors.o
 .rodata.str1.1
                0x000000000042d540      0x137 build/p_doors.o
 *fill*         0x000000000042d677        0x1 
 .rodata        0x000000000042d678       0x20 build/p_enemy.o
 .rodata.str1.1
                0x000000000042d698       0x3b build/p_enemy.o
 *fill*         0x000000000042d6d3        0x5 
 .rodata        0x000000000042d6d8       0x68 build/p_floor.o
 .rodata        0x000000000042d740      0x188 build/p_inter.o
 .rodata.str1.1
                0x000000000042d8c8      0x3d7 build/p_inter.o
 .rodata.str1.1
                0x000000000042dc9f       0x72 build/p_map.o
 *fill*         0x000000000042dd11        0xf 
 .rodata        0x000000000042dd20      0x248 build/p_maputl.o
 .rodata.str1.1
                0x000000000042df68       0x2d build/p_mobj.o
 *fill*         0x000000000042df95        0x3 
 .rodata        0x000000000042df98       0x28 build/p_plats.o
 .rodata.str1.1
                0x000000000042dfc0       0x45 build/p_plats.o
 *fill*         0x000000000042e005        0x3 
 .rodata        0x000000000042e008       0x40 build/p_saveg.o
 .rodata.str1.1
                0x000000000042e048       0xc3 build/p_saveg.o
                                         0xe1 (size before relaxing)
 .rodata.str1.1
                0x000000000042e10b       0x5a build/p_setup.o
 .rodata.str1.1
                0x000000000042e165       0x28 build/p_sight.o
 *fill*         0x000000000042e18d        0x3 
 .rodata        0x000000000042e190      0x550 build/p_spec.o
 .rodata.str1.1
                0x000000000042e6e0      0x242 build/p_spec.o
 *fill*         0x000000000042e922        0x6 
 .rodata        0x000000000042e928      0x460 build/p_switch.o
 .rodata.str1.1
                0x000000000042ed88       0x25 build/p_switch.o
 .rodata.str1.1
                0x000000000042edad       0x23 build/r_bsp.o
 .rodata.str1.1
                0x000000000042edd0      0x120 build/r_data.o
                                        0x12e (size before relaxing)
 .rodata.str1.1
                0x000000000042eef0       0xa6 build/r_draw.o
 .rodata.str1.1
                0x000000000042ef96       0xa6 build/r_plane.o
 .rodata.str1.1
                0x000000000042f03c       0x20 build/r_segs.o
 .rodata.str1.1
                0x000000000042f05c      0x1d2 build/r_things.o
 *fill*         0x000000000042f22e        0x2 
 .rodata.cst16  0x000000000042f230       0x10 build/sha1.o
 .rodata.str1.1
                0x000000000042f240      0x186 build/sounds.o
                                        0x191 (size before relaxing)
 .rodata.str1.1
                0x000000000042f3c6        0xa build/statdump.o
 .rodata.str1.1
                0x000000000042f3c6       0x5b build/st_lib.o
 *fill*         0x000000000042f421        0xf 
 .rodata.cst16  0x000000000042f430       0x20 build/st_stuff.o
 .rodata.str1.1
                0x000000000042f450      0x1b1 build/st_stuff.o
                                        0x1b9 (size before relaxing)
 *fill*         0x000000000042f601        0xf 
 .rodata        0x000000000042f610       0x24 build/s_sound.o
 .rodata.str1.1
                0x000000000042f634       0x69 build/s_sound.o
 *fill*         0x000000000042f69d        0x3 
 .rodata        0x000000000042f6a0    0x10510 build/tables.o
                0x000000000042f6a0                finetangent
                0x00000000004336a0                finesine
                0x000000000043d6a0                tantoangle
                0x000000000043f6b0                gammatable
 .rodata.cst4   0x000000000043fbb0        0x4 build/v_video.o
 *fill*         0x000000000043fbb4        0xc 
 .rodata.cst16  0x000000000043fbc0       0x10 build/v_video.o
 .rodata.cst8   0x000000000043fbd0        0x8 build/v_video.o
 .rodata.str1.1
                0x000000000043fbd8      0x100 build/v_video.o
                                        0x108 (size before relaxing)
 *fill*         0x000000000043fcd8        0x8 
 .rodata        0x000000000043fce0      0x1d0 build/wi_stuff.o
 .rodata.str1.1
                0x000000000043feb0       0xf9 build/wi_stuff.o
                                        0x10b (size before relaxing)
 *fill*         0x000000000043ffa9        0x7 
 .rodata.str4.16
                0x000000000043ffb0       0x10 build/wi_stuff.o
 .rodata.str1.1
                0x000000000043ffc0        0x6 build/w_file.o
 .rodata.str1.1
                0x000000000043ffc6        0x6 build/w_main.o
                                         0x12 (size before relaxing)
 .rodata.str1.1
                0x000000000043ffcc      0x1d2 build/w_wad.o
                                        0x1d6 (size before relaxing)
 *fill*         0x000000000044019e        0x2 
 .rodata        0x00000000004401a0       0x40 build/w_wad.o
 .rodata.str1.1
                0x00000000004401e0      0x2a0 build/z_zone.o
 .rodata.str1.16
                0x0000000000440480       0x90 build/z_zone.o
 .rodata.str1.1
                0x0000000000440510        0x3 build/w_file_stdc.o
 .rodata        0x0000000000440510       0x80 build/i_input.o
 .rodata.str1.1
                0x0000000000440590      0x149 build/i_video.o
 *fill*         0x00000000004406d9        0x7 
 .rodata.str1.16
                0x00000000004406e0       0x20 build/i_video.o
                                         0x12 (size before relaxing)
 .rodata        0x0000000000440700       0x20 build/doomgeneric_xlib.o

.rodata1
 *(.rodata1)

.eh_frame_hdr   0x0000000000440720     0x1a3c
 *(.eh_frame_hdr)
 .eh_frame_hdr  0x0000000000440720     0x1a3c /usr/bin/../lib/gcc/x86_64-linux-gnu/7.5.0/../../../x86_64-linux-gnu/crt1.o
                0x0000000000440720                __GNU_EH_FRAME_HDR
 *(.eh_frame_entry .eh_frame_entry.*)

.eh_frame       0x0000000000442160     0x6088
 *(.eh_frame)
 .eh_frame      0x0000000000442160       0x58 /usr/bin/../lib/gcc/x86_64-linux-gnu/7.5.0/../../../x86_64-linux-gnu/crt1.o
                                         0x5c (size before relaxing)
 *fill*         0x00000000004421b8        0x0 
 .eh_frame      0x00000000004421b8       0x28 /usr/bin/../lib/gcc/x86_64-linux-gnu/7.5.0/../../../x86_64-linux-gnu/crt1.o
                                         0x40 (size before relaxing)
 .eh_frame      0x00000000004421e0        0x0 /usr/bin/../lib/gcc/x86_64-linux-gnu/7.5.0/../../../x86_64-linux-gnu/crt1.o
 .eh_frame      0x00000000004421e0        0x0 build/dummy.o
                                         0x30 (size before relaxing)
 .eh_frame      0x00000000004421e0      0x3d8 build/am_map.o
                                        0x3f0 (size before relaxing)
 .eh_frame      0x00000000004425b8       0x28 build/d_event.o
                                         0x40 (size before relaxing)
 .eh_frame      0x00000000004425e0       0xf8 build/d_iwad.o
                                        0x110 (size before relaxing)
 .eh_frame      0x00000000004426d8       0xf0 build/d_loop.o
                                        0x108 (size before relaxing)
 .eh_frame      0x00000000004427c8      0x198 build/d_main.o
                                        0x1b0 (size before relaxing)
 .eh_frame      0x0000000000442960       0x88 build/d_mode.o
                                         0xa0 (size before relaxing)
 .eh_frame      0x00000000004429e8       0x60 build/d_net.o
                                         0x78 (size before relaxing)
 .eh_frame      0x0000000000442a48      0x148 build/f_finale.o
                                        0x160 (size before relaxing)
 .eh_frame      0x0000000000442b90      0x148 build/f_wipe.o
                                        0x160 (size before relaxing)
 .eh_frame      0x0000000000442cd8      0x3b0 build/g_game.o
                                        0x3c8 (size before relaxing)
 .eh_frame      0x0000000000443088      0x200 build/hu_lib.o
                                        0x218 (size before relaxing)
 .eh_frame      0x0000000000443288       0xf0 build/hu_stuff.o
                                        0x108 (size before relaxing)
 .eh_frame      0x0000000000443378        0x0 build/i_cdmus.o
                                         0xd0 (size before relaxing)
 .eh_frame      0x0000000000443378       0x18 build/i_endoom.o
                                         0x30 (size before relaxing)
 .eh_frame      0x0000000000443390       0x60 build/i_joystick.o
                                         0x78 (size before relaxing)
 .eh_frame      0x00000000004433f0        0x0 build/i_scale.o
                                        0x2b8 (size before relaxing)
 .eh_frame      0x00000000004433f0      0x190 build/i_sound.o
                                        0x1a8 (size before relaxing)
 .eh_frame      0x0000000000443580      0x140 build/i_system.o
                                        0x158 (size before relaxing)
 .eh_frame      0x00000000004436c0       0x78 build/i_timer.o
                                         0x90 (size before relaxing)
 .eh_frame      0x0000000000443738        0x0 build/memio.o
                                         0xf8 (size before relaxing)
 .eh_frame      0x0000000000443738       0x80 build/m_argv.o
                                         0x98 (size before relaxing)
 .eh_frame      0x00000000004437b8       0x28 build/m_bbox.o
                                         0x40 (size before relaxing)
 .eh_frame      0x00000000004437e0       0x40 build/m_cheat.o
                                         0x58 (size before relaxing)
 .eh_frame      0x0000000000443820      0x150 build/m_config.o
                                        0x168 (size before relaxing)
 .eh_frame      0x0000000000443970       0xc8 build/m_controls.o
                                         0xe0 (size before relaxing)
 .eh_frame      0x0000000000443a38       0x28 build/m_fixed.o
                                         0x40 (size before relaxing)
 .eh_frame      0x0000000000443a60      0x550 build/m_menu.o
                                        0x568 (size before relaxing)
 .eh_frame      0x0000000000443fb0      0x290 build/m_misc.o
                                        0x2a8 (size before relaxing)
 .eh_frame      0x0000000000444240       0x40 build/m_random.o
                                         0x58 (size before relaxing)
 .eh_frame      0x0000000000444280       0xb0 build/p_ceilng.o
                                         0xc8 (size before relaxing)
 .eh_frame      0x0000000000444330       0xc0 build/p_doors.o
                                         0xd8 (size before relaxing)
 .eh_frame      0x00000000004443f0      0x728 build/p_enemy.o
                                        0x740 (size before relaxing)
 .eh_frame      0x0000000000444b18       0xb0 build/p_floor.o
                                         0xc8 (size before relaxing)
 .eh_frame      0x0000000000444bc8      0x110 build/p_inter.o
                                        0x128 (size before relaxing)
 .eh_frame      0x0000000000444cd8      0x160 build/p_lights.o
                                        0x178 (size before relaxing)
 .eh_frame      0x0000000000444e38      0x2d0 build/p_map.o
                                        0x2e8 (size before relaxing)
 .eh_frame      0x0000000000445108      0x228 build/p_maputl.o
                                        0x240 (size before relaxing)
 .eh_frame      0x0000000000445330      0x258 build/p_mobj.o
                                        0x270 (size before relaxing)
 .eh_frame      0x0000000000445588       0xb0 build/p_plats.o
                                         0xc8 (size before relaxing)
 .eh_frame      0x0000000000445638      0x330 build/p_pspr.o
                                        0x348 (size before relaxing)
 .eh_frame      0x0000000000445968      0x300 build/p_saveg.o
                                        0x318 (size before relaxing)
 .eh_frame      0x0000000000445c68      0x1e0 build/p_setup.o
                                        0x1f8 (size before relaxing)
 .eh_frame      0x0000000000445e48       0xa8 build/p_sight.o
                                         0xc0 (size before relaxing)
 .eh_frame      0x0000000000445ef0      0x1e0 build/p_spec.o
                                        0x1f8 (size before relaxing)
 .eh_frame      0x00000000004460d0       0x88 build/p_switch.o
                                         0xa0 (size before relaxing)
 .eh_frame      0x0000000000446158       0x38 build/p_telept.o
                                         0x50 (size before relaxing)
 .eh_frame      0x0000000000446190       0x90 build/p_tick.o
                                         0xa8 (size before relaxing)
 .eh_frame      0x0000000000446220       0x88 build/p_user.o
                                         0xa0 (size before relaxing)
 .eh_frame      0x00000000004462a8       0xf8 build/r_bsp.o
                                        0x110 (size before relaxing)
 .eh_frame      0x00000000004463a0      0x1d0 build/r_data.o
                                        0x1e8 (size before relaxing)
 .eh_frame      0x0000000000446570      0x180 build/r_draw.o
                                        0x198 (size before relaxing)
 .eh_frame      0x00000000004466f0      0x1c0 build/r_main.o
                                        0x1d8 (size before relaxing)
 .eh_frame      0x00000000004468b0      0x110 build/r_plane.o
                                        0x128 (size before relaxing)
 .eh_frame      0x00000000004469c0       0x90 build/r_segs.o
                                         0xa8 (size before relaxing)
 .eh_frame      0x0000000000446a50       0x18 build/r_sky.o
                                         0x30 (size before relaxing)
 .eh_frame      0x0000000000446a68      0x1f8 build/r_things.o
                                        0x210 (size before relaxing)
 .eh_frame      0x0000000000446c60       0xe8 build/sha1.o
                                        0x100 (size before relaxing)
 .eh_frame      0x0000000000446d48       0x38 build/statdump.o
                                         0x50 (size before relaxing)
 .eh_frame      0x0000000000446d80      0x130 build/st_lib.o
                                        0x148 (size before relaxing)
 .eh_frame      0x0000000000446eb0      0x228 build/st_stuff.o
                                        0x240 (size before relaxing)
 .eh_frame      0x00000000004470d8      0x1e0 build/s_sound.o
                                        0x1f8 (size before relaxing)
 .eh_frame      0x00000000004472b8       0x18 build/tables.o
                                         0x30 (size before relaxing)
 .eh_frame      0x00000000004472d0      0x338 build/v_video.o
                                        0x350 (size before relaxing)
 .eh_frame      0x0000000000447608      0x3f0 build/wi_stuff.o
                                        0x408 (size before relaxing)
 .eh_frame      0x00000000004479f8       0x38 build/w_checksum.o
                                         0x50 (size before relaxing)
 .eh_frame      0x0000000000447a30       0x40 build/w_file.o
                                         0x58 (size before relaxing)
 .eh_frame      0x0000000000447a70       0x28 build/w_main.o
                                         0x40 (size before relaxing)
 .eh_frame      0x0000000000447a98      0x1c0 build/w_wad.o
                                        0x1d8 (size before relaxing)
 .eh_frame      0x0000000000447c58      0x180 build/z_zone.o
                                        0x198 (size before relaxing)
 .eh_frame      0x0000000000447dd8       0x58 build/w_file_stdc.o
                                         0x70 (size before relaxing)
 .eh_frame      0x0000000000447e30       0x40 build/i_input.o
                                         0x58 (size before relaxing)
 .eh_frame      0x0000000000447e70      0x1e0 build/i_video.o
                                        0x1f8 (size before relaxing)
 .eh_frame      0x0000000000448050       0x18 build/doomgeneric.o
                                         0x30 (size before relaxing)
 .eh_frame      0x0000000000448068      0x120 build/doomgeneric_xlib.o
                                        0x138 (size before relaxing)
 .eh_frame      0x0000000000448188       0x5c /usr/lib/x86_64-linux-gnu/libc_nonshared.a(elf-init.oS)
                                         0x78 (size before relaxing)
 .eh_frame      0x00000000004481e4        0x4 /usr/bin/../lib/gcc/x86_64-linux-gnu/7.5.0/crtend.o
 *(.eh_frame.*)

.gcc_except_table
 *(.gcc_except_table .gcc_except_table.*)

.gnu_extab
 *(.gnu_extab*)

.exception_ranges
 *(.exception_ranges .exception_ranges*)
                0x0000000000648df0                . = DATA_SEGMENT_ALIGN (CONSTANT (MAXPAGESIZE), CONSTANT (COMMONPAGESIZE))

.eh_frame
 *(.eh_frame)
 *(.eh_frame.*)

.gnu_extab
 *(.gnu_extab)

.gcc_except_table
 *(.gcc_except_table .gcc_except_table.*)

.exception_ranges
 *(.exception_ranges .exception_ranges*)

.tdata
 *(.tdata .tdata.* .gnu.linkonce.td.*)

.tbss
 *(.tbss .tbss.* .gnu.linkonce.tb.*)
 *(.tcommon)

.preinit_array  0x0000000000648df0        0x0
                [!provide]                        PROVIDE (__preinit_array_start = .)
 *(.preinit_array)
                [!provide]                        PROVIDE (__preinit_array_end = .)

.init_array     0x0000000000648df0        0x8
                0x0000000000648df0                PROVIDE (__init_array_start = .)
 *(SORT_BY_INIT_PRIORITY(.init_array.*) SORT_BY_INIT_PRIORITY(.ctors.*))
 *(.init_array EXCLUDE_FILE(*crtend?.o *crtend.o *crtbegin?.o *crtbegin.o) .ctors)
 .init_array    0x0000000000648df0        0x8 /usr/bin/../lib/gcc/x86_64-linux-gnu/7.5.0/crtbegin.o
                0x0000000000648df8                PROVIDE (__init_array_end = .)

.fini_array     0x0000000000648df8        0x8
                [!provide]                        PROVIDE (__fini_array_start = .)
 *(SORT_BY_INIT_PRIORITY(.fini_array.*) SORT_BY_INIT_PRIORITY(.dtors.*))
 *(.fini_array EXCLUDE_FILE(*crtend?.o *crtend.o *crtbegin?.o *crtbegin.o) .dtors)
 .fini_array    0x0000000000648df8        0x8 /usr/bin/../lib/gcc/x86_64-linux-gnu/7.5.0/crtbegin.o
                [!provide]                        PROVIDE (__fini_array_end = .)

.ctors
 *crtbegin.o(.ctors)
 *crtbegin?.o(.ctors)
 *(EXCLUDE_FILE(*crtend?.o *crtend.o) .ctors)
 *(SORT_BY_NAME(.ctors.*))
 *(.ctors)

.dtors
 *crtbegin.o(.dtors)
 *crtbegin?.o(.dtors)
 *(EXCLUDE_FILE(*crtend?.o *crtend.o) .dtors)
 *(SORT_BY_NAME(.dtors.*))
 *(.dtors)

.jcr
 *(.jcr)

.data.rel.ro    0x0000000000648e00        0x0
 *(.data.rel.ro.local* .gnu.linkonce.d.rel.ro.local.*)
 *(.data.rel.ro .data.rel.ro.* .gnu.linkonce.d.rel.ro.*)
 .data.rel.ro   0x0000000000648e00        0x0 /usr/bin/../lib/gcc/x86_64-linux-gnu/7.5.0/../../../x86_64-linux-gnu/crt1.o

.dynamic        0x0000000000648e00      0x1f0
 *(.dynamic)
 .dynamic       0x0000000000648e00      0x1f0 /usr/bin/../lib/gcc/x86_64-linux-gnu/7.5.0/../../../x86_64-linux-gnu/crt1.o
                0x0000000000648e00                _DYNAMIC

.got            0x0000000000648ff0       0x10
 *(.got)
 .got           0x0000000000648ff0       0x10 /usr/bin/../lib/gcc/x86_64-linux-gnu/7.5.0/../../../x86_64-linux-gnu/crt1.o
 *(.igot)
                0x0000000000649fe8                . = DATA_SEGMENT_RELRO_END (., (SIZEOF (.got.plt) >= 0x18)?0x18:0x0)

.got.plt        0x0000000000649000      0x1e0
 *(.got.plt)
 .got.plt       0x0000000000649000      0x1e0 /usr/bin/../lib/gcc/x86_64-linux-gnu/7.5.0/../../../x86_64-linux-gnu/crt1.o
                0x0000000000649000                _GLOBAL_OFFSET_TABLE_
 *(.igot.plt)
 .igot.plt      0x00000000006491e0        0x0 /usr/bin/../lib/gcc/x86_64-linux-gnu/7.5.0/../../../x86_64-linux-gnu/crt1.o

.data           0x00000000006491e0    0x134c8
 *(.data .data.* .gnu.linkonce.d.*)
 .data          0x00000000006491e0      0x250 build/am_map.o
                0x00000000006491e0                player_arrow
                0x0000000000649250                cheat_player_arrow
                0x0000000000649350                triangle_guy
                0x0000000000649380                thintriangle_guy
                0x00000000006493b0                cheat_amap
 .data          0x0000000000649430        0x8 build/doomstat.o
                0x0000000000649430                gamemode
                0x0000000000649434                gameversion
 *fill*         0x0000000000649438        0x8 
 .data          0x0000000000649440       0x80 build/dstrings.o
                0x0000000000649440                doom1_endmsg
                0x0000000000649480                doom2_endmsg
 .data          0x00000000006494c0       0xd8 build/d_items.o
                0x00000000006494c0                weaponinfo
 .data          0x0000000000649598        0xc build/d_main.o
                0x0000000000649598                show_endoom
                0x000000000064959c                wipegamestate
 *fill*         0x00000000006495a4        0x4 
 .data          0x00000000006495a8       0x20 build/d_net.o
 *fill*         0x00000000006495c8        0x8 
 .data          0x00000000006495d0      0x3e0 build/f_finale.o
                0x0000000000649890                castorder
 .data          0x00000000006499b0      0x150 build/g_game.o
                0x00000000006499b0                precache
                0x00000000006499b4                forwardmove
                0x00000000006499bc                sidemove
                0x00000000006499c4                angleturn
                0x00000000006499d0                vanilla_savegame_limit
                0x00000000006499d4                vanilla_demo_limit
                0x00000000006499e0                pars
                0x0000000000649a80                cpars
 .data          0x0000000000649b00      0x4e0 build/hu_stuff.o
                0x0000000000649b00                chat_macros
                0x0000000000649b50                player_names
                0x0000000000649b70                mapnames
                0x0000000000649ce0                mapnames_commercial
 .data          0x0000000000649fe0     0xccbc build/info.o
                0x0000000000649fe0                sprnames
                0x000000000064a440                states
                0x0000000000653b60                mobjinfo
 *fill*         0x0000000000656c9c        0x4 
 .data          0x0000000000656ca0       0x38 build/i_joystick.o
 .data          0x0000000000656cd8       0x20 build/i_sound.o
                0x0000000000656cd8                snd_samplerate
                0x0000000000656cdc                snd_cachesize
                0x0000000000656ce0                snd_maxslicetime_ms
                0x0000000000656ce8                snd_musiccmd
                0x0000000000656cf0                snd_musicdevice
                0x0000000000656cf4                snd_sfxdevice
 .data          0x0000000000656cf8        0x8 build/i_system.o
 .data          0x0000000000656d00     0x1890 build/m_config.o
 .data          0x0000000000658590      0x19c build/m_controls.o
                0x0000000000658590                key_right
                0x0000000000658594                key_left
                0x0000000000658598                key_up
                0x000000000065859c                key_down
                0x00000000006585a0                key_strafeleft
                0x00000000006585a4                key_straferight
                0x00000000006585a8                key_fire
                0x00000000006585ac                key_use
                0x00000000006585b0                key_strafe
                0x00000000006585b4                key_speed
                0x00000000006585b8                key_flyup
                0x00000000006585bc                key_flydown
                0x00000000006585c0                key_flycenter
                0x00000000006585c4                key_lookup
                0x00000000006585c8                key_lookdown
                0x00000000006585cc                key_lookcenter
                0x00000000006585d0                key_invleft
                0x00000000006585d4                key_invright
                0x00000000006585d8                key_useartifact
                0x00000000006585dc                key_jump
                0x00000000006585e0                key_arti_all
                0x00000000006585e4                key_arti_health
                0x00000000006585e8                key_arti_poisonbag
                0x00000000006585ec                key_arti_blastradius
                0x00000000006585f0                key_arti_teleport
                0x00000000006585f4                key_arti_teleportother
                0x00000000006585f8                key_arti_egg
                0x00000000006585fc                key_arti_invulnerability
                0x0000000000658600                key_usehealth
                0x0000000000658604                key_invquery
                0x0000000000658608                key_mission
                0x000000000065860c                key_invpop
                0x0000000000658610                key_invkey
                0x0000000000658614                key_invhome
                0x0000000000658618                key_invend
                0x000000000065861c                key_invuse
                0x0000000000658620                key_invdrop
                0x0000000000658624                mousebstrafe
                0x0000000000658628                mousebforward
                0x000000000065862c                mousebjump
                0x0000000000658630                mousebstrafeleft
                0x0000000000658634                mousebstraferight
                0x0000000000658638                mousebbackward
                0x000000000065863c                mousebuse
                0x0000000000658640                mousebprevweapon
                0x0000000000658644                mousebnextweapon
                0x0000000000658648                key_message_refresh
                0x000000000065864c                key_pause
                0x0000000000658650                key_demo_quit
                0x0000000000658654                key_spy
                0x0000000000658658                key_multi_msg
                0x000000000065865c                key_weapon1
                0x0000000000658660                key_weapon2
                0x0000000000658664                key_weapon3
                0x0000000000658668                key_weapon4
                0x000000000065866c                key_weapon5
                0x0000000000658670                key_weapon6
                0x0000000000658674                key_weapon7
                0x0000000000658678                key_weapon8
                0x000000000065867c                key_map_north
                0x0000000000658680                key_map_south
                0x0000000000658684                key_map_east
                0x0000000000658688                key_map_west
                0x000000000065868c                key_map_zoomin
                0x0000000000658690                key_map_zoomout
                0x0000000000658694                key_map_toggle
                0x0000000000658698                key_map_maxzoom
                0x000000000065869c                key_map_follow
                0x00000000006586a0                key_map_grid
                0x00000000006586a4                key_map_mark
                0x00000000006586a8                key_map_clearmark
                0x00000000006586ac                key_menu_activate
                0x00000000006586b0                key_menu_up
                0x00000000006586b4                key_menu_down
                0x00000000006586b8                key_menu_left
                0x00000000006586bc                key_menu_right
                0x00000000006586c0                key_menu_back
                0x00000000006586c4                key_menu_forward
                0x00000000006586c8                key_menu_confirm
                0x00000000006586cc                key_menu_abort
                0x00000000006586d0                key_menu_help
                0x00000000006586d4                key_menu_save
                0x00000000006586d8                key_menu_load
                0x00000000006586dc                key_menu_volume
                0x00000000006586e0                key_menu_detail
                0x00000000006586e4                key_menu_qsave
                0x00000000006586e8                key_menu_endgame
                0x00000000006586ec                key_menu_messages
                0x00000000006586f0                key_menu_qload
                0x00000000006586f4                key_menu_quit
                0x00000000006586f8                key_menu_gamma
                0x00000000006586fc                key_menu_incscreen
                0x0000000000658700                key_menu_decscreen
                0x0000000000658704                joybstrafe
                0x0000000000658708                joybuse
                0x000000000065870c                joybspeed
                0x0000000000658710                joybstrafeleft
                0x0000000000658714                joybstraferight
                0x0000000000658718                joybjump
                0x000000000065871c                joybprevweapon
                0x0000000000658720                joybnextweapon
                0x0000000000658724                joybmenu
                0x0000000000658728                dclick_use
 *fill*         0x000000000065872c        0x4 
 .data          0x0000000000658730      0x7c0 build/m_menu.o
                0x0000000000658730                mouseSensitivity
                0x0000000000658734                showMessages
                0x0000000000658738                screenblocks
                0x0000000000658740                gammamsg
                0x00000000006587d0                skullName
                0x00000000006587e0                MainMenu
                0x00000000006588a0                MainDef
                0x00000000006588d0                EpisodeMenu
                0x0000000000658950                EpiDef
                0x0000000000658980                NewGameMenu
                0x0000000000658a20                NewDef
                0x0000000000658a50                OptionsMenu
                0x0000000000658b50                OptionsDef
                0x0000000000658b80                ReadMenu1
                0x0000000000658ba0                ReadDef1
                0x0000000000658bd0                ReadMenu2
                0x0000000000658bf0                ReadDef2
                0x0000000000658c20                SoundMenu
                0x0000000000658ca0                SoundDef
                0x0000000000658cd0                LoadMenu
                0x0000000000658d90                LoadDef
                0x0000000000658dc0                SaveMenu
                0x0000000000658e80                SaveDef
                0x0000000000658eb0                quitsounds
                0x0000000000658ed0                quitsounds2
 .data          0x0000000000658ef0       0x84 build/p_enemy.o
                0x0000000000658ef0                opposite
                0x0000000000658f20                diags
                0x0000000000658f30                xspeed
                0x0000000000658f50                yspeed
                0x0000000000658f70                TRACEANGLE
 *fill*         0x0000000000658f74        0xc 
 .data          0x0000000000658f80       0x20 build/p_inter.o
                0x0000000000658f80                maxammo
                0x0000000000658f90                clipammo
 .data          0x0000000000658fa0      0x284 build/p_spec.o
                0x0000000000658fa0                animdefs
 *fill*         0x0000000000659224        0xc 
 .data          0x0000000000659230      0x334 build/p_switch.o
                0x0000000000659230                alphSwitchList
 *fill*         0x0000000000659564        0xc 
 .data          0x0000000000659570       0xc0 build/r_bsp.o
                0x0000000000659570                checkcoord
 .data          0x0000000000659630       0xc8 build/r_draw.o
                0x0000000000659630                fuzzoffset
 .data          0x00000000006596f8        0x4 build/r_main.o
                0x00000000006596f8                validcount
 *fill*         0x00000000006596fc        0x4 
 .data          0x0000000000659700     0x23c0 build/sounds.o
                0x0000000000659700                S_music
                0x0000000000659f80                S_sfx
 .data          0x000000000065bac0      0x490 build/st_stuff.o
                0x000000000065bac0                cheat_mus
                0x000000000065bb08                cheat_god
                0x000000000065bb50                cheat_ammo
                0x000000000065bb98                cheat_ammonokey
                0x000000000065bbe0                cheat_noclip
                0x000000000065bc28                cheat_commercial_noclip
                0x000000000065bc70                cheat_powerup
                0x000000000065be68                cheat_choppers
                0x000000000065beb0                cheat_clev
                0x000000000065bef8                cheat_mypos
 .data          0x000000000065bf50        0xc build/s_sound.o
                0x000000000065bf50                sfxVolume
                0x000000000065bf54                musicVolume
                0x000000000065bf58                snd_channels
 *fill*         0x000000000065bf5c        0x4 
 .data          0x000000000065bf60        0x8 build/tables.o
                0x000000000065bf60                finecosine
 *fill*         0x000000000065bf68        0x8 
 .data          0x000000000065bf70      0x710 build/wi_stuff.o
 .data          0x000000000065c680       0x18 build/w_file_stdc.o
                0x000000000065c680                stdc_wad_file
 .data          0x000000000065c698        0x4 build/i_input.o
                0x000000000065c698                vanilla_keyboard_mapping
 .data          0x000000000065c69c        0xc build/i_video.o
                0x000000000065c69c                fb_scaling
                0x000000000065c6a0                mouse_acceleration
                0x000000000065c6a4                mouse_threshold

.tm_clone_table
                0x000000000065c6a8        0x0
 .tm_clone_table
                0x000000000065c6a8        0x0 /usr/bin/../lib/gcc/x86_64-linux-gnu/7.5.0/crtbegin.o
 .tm_clone_table
                0x000000000065c6a8        0x0 /usr/bin/../lib/gcc/x86_64-linux-gnu/7.5.0/crtend.o

.data1
 *(.data1)
                0x000000000065c6a8                _edata = .
                [!provide]                        PROVIDE (edata = .)
                0x000000000065c6a8                . = .
                0x000000000065c6a8                __bss_start = .

.bss            0x000000000065c6c0    0x42048
 *(.dynbss)
 *fill*         0x000000000065c6c0        0x0 
 .dynbss        0x000000000065c6c0        0x8 /usr/bin/../lib/gcc/x86_64-linux-gnu/7.5.0/../../../x86_64-linux-gnu/crt1.o
                0x000000000065c6c0                stderr@@GLIBC_2.2.5
 *(.bss .bss.* .gnu.linkonce.b.*)
 .bss           0x000000000065c6c8        0x1 /usr/bin/../lib/gcc/x86_64-linux-gnu/7.5.0/crtbegin.o
 *fill*         0x000000000065c6c9        0x3 
 .bss           0x000000000065c6cc        0x8 build/dummy.o
                0x000000000065c6cc                net_client_connected
                0x000000000065c6d0                drone
 *fill*         0x000000000065c6d4        0xc 
 .bss           0x000000000065c6e0      0x188 build/am_map.o
                0x000000000065c6e0                automapactive
 .bss           0x000000000065c868        0x4 build/doomstat.o
                0x000000000065c868                gamemission
 *fill*         0x000000000065c86c        0x4 
 .bss           0x000000000065c870      0x508 build/d_event.o
 *fill*         0x000000000065cd78        0x8 
 .bss           0x000000000065cd80      0x410 build/d_iwad.o
 .bss           0x000000000065d190     0x5070 build/d_loop.o
                0x000000000065d190                singletics
 .bss           0x0000000000662200       0x18 build/d_main.o
                0x0000000000662200                main_loop_started
 *fill*         0x0000000000662218        0x8 
 .bss           0x0000000000662220       0x50 build/d_net.o
 .bss           0x0000000000662270        0x4 build/f_finale.o
 *fill*         0x0000000000662274        0x4 
 .bss           0x0000000000662278       0x21 build/f_wipe.o
 *fill*         0x0000000000662299        0x7 
 .bss           0x00000000006622a0      0x560 build/g_game.o
                0x00000000006622a0                testcontrols
 .bss           0x0000000000662800      0x60c build/hu_stuff.o
 .bss           0x0000000000662e0c       0x14 build/i_joystick.o
 .bss           0x0000000000662e20       0x10 build/i_sound.o
 .bss           0x0000000000662e30       0x17 build/i_system.o
 *fill*         0x0000000000662e47        0x1 
 .bss           0x0000000000662e48        0x4 build/i_timer.o
 *fill*         0x0000000000662e4c        0x4 
 .bss           0x0000000000662e50       0x10 build/m_config.o
 .bss           0x0000000000662e60       0x14 build/m_controls.o
                0x0000000000662e60                mousebfire
                0x0000000000662e64                key_prevweapon
                0x0000000000662e68                key_nextweapon
                0x0000000000662e6c                key_menu_screenshot
                0x0000000000662e70                joybfire
 .bss           0x0000000000662e74       0x20 build/m_menu.o
                0x0000000000662e74                detailLevel
 .bss           0x0000000000662e94        0x8 build/m_random.o
                0x0000000000662e94                rndindex
                0x0000000000662e98                prndindex
 .bss           0x0000000000662e9c        0x8 build/p_enemy.o
                0x0000000000662e9c                braintargeton
 .bss           0x0000000000662ea4        0x4 build/p_map.o
 .bss           0x0000000000662ea8       0xe0 build/p_mobj.o
 .bss           0x0000000000662f88       0x18 build/p_saveg.o
 .bss           0x0000000000662fa0       0x8c build/p_setup.o
 .bss           0x000000000066302c        0xc build/p_spec.o
 .bss           0x0000000000663038       0x10 build/r_draw.o
                0x0000000000663038                fuzzpos
 *fill*         0x0000000000663048        0x8 
 .bss           0x0000000000663050      0x500 build/r_things.o
 .bss           0x0000000000663550     0x1910 build/statdump.o
 .bss           0x0000000000664e60      0x7d1 build/st_stuff.o
 *fill*         0x0000000000665631        0x7 
 .bss           0x0000000000665638       0x18 build/s_sound.o
 .bss           0x0000000000665650       0x20 build/v_video.o
                0x0000000000665650                tinttable
                0x0000000000665658                xlatab
 .bss           0x0000000000665670      0x260 build/wi_stuff.o
 .bss           0x00000000006658d0       0x10 build/w_checksum.o
 .bss           0x00000000006658e0       0x10 build/w_wad.o
                0x00000000006658e0                numlumps
 .bss           0x00000000006658f0        0x4 build/i_input.o
 *fill*         0x00000000006658f4        0xc 
 .bss           0x0000000000665900      0x445 build/i_video.o
                0x0000000000665900                usemouse
                0x0000000000665908                I_VideoBuffer
                0x0000000000665910                screensaver_mode
                0x0000000000665914                usegamma
 *fill*         0x0000000000665d45        0x3 
 .bss           0x0000000000665d48        0x8 build/doomgeneric.o
                0x0000000000665d48                DG_ScreenBuffer
 .bss           0x0000000000665d50       0x50 build/doomgeneric_xlib.o
 *(COMMON)
 COMMON         0x0000000000665da0        0xc build/doomstat.o
                0x0000000000665da0                gamedescription
                0x0000000000665da8                modifiedgame
 COMMON         0x0000000000665dac       0x10 build/d_loop.o
                0x0000000000665dac                offsetms
                0x0000000000665db0                gametic
                0x0000000000665db4                lasttime
                0x0000000000665db8                ticdup
 *fill*         0x0000000000665dbc        0x4 
 COMMON         0x0000000000665dc0      0x8e0 build/d_main.o
                0x0000000000665dc0                advancedemo
                0x0000000000665dc4                startepisode
                0x0000000000665dc8                pagename
                0x0000000000665dd0                demosequence
                0x0000000000665dd4                storedemo
                0x0000000000665dd8                respawnparm
                0x0000000000665ddc                nomonsters
                0x0000000000665de0                title
                0x0000000000665e60                startskill
                0x0000000000665e64                bfgedition
                0x0000000000665e70                mapdir
                0x0000000000666270                startloadgame
                0x0000000000666274                pagetic
                0x0000000000666278                devparm
                0x000000000066627c                autostart
                0x0000000000666280                fastparm
                0x0000000000666288                savegamedir
                0x0000000000666290                wadfile
                0x0000000000666690                startmap
                0x0000000000666698                iwadfile
 COMMON         0x00000000006666a0        0x8 build/d_net.o
                0x00000000006666a0                netcmds
 COMMON         0x00000000006666a8       0x3c build/f_finale.o
                0x00000000006666a8                finaleflat
                0x00000000006666b0                caststate
                0x00000000006666b8                castattacking
                0x00000000006666bc                castnum
                0x00000000006666c0                castonmelee
                0x00000000006666c4                finalecount
                0x00000000006666c8                casttics
                0x00000000006666d0                finaletext
                0x00000000006666d8                castframes
                0x00000000006666dc                castdeath
                0x00000000006666e0                finalestage
 *fill*         0x00000000006666e4        0xc 
 COMMON         0x00000000006666f0      0xaf0 build/g_game.o
                0x00000000006666f0                viewactive
                0x00000000006666f4                totalsecret
                0x00000000006666f8                sendsave
                0x0000000000666700                demoname
                0x0000000000666708                gamestate
                0x000000000066670c                mousey
                0x0000000000666710                bodyqueslot
                0x0000000000666714                netgame
                0x0000000000666718                respawnmonsters
                0x000000000066671c                displayplayer
                0x0000000000666720                d_map
                0x0000000000666730                turbodetected
                0x0000000000666740                demo_p
                0x0000000000666748                defdemoname
                0x0000000000666750                lowres_turn
                0x0000000000666754                demoplayback
                0x0000000000666758                timelimit
                0x000000000066675c                starttime
                0x0000000000666760                singledemo
                0x0000000000666764                nodrawers
                0x0000000000666770                players
                0x0000000000666c90                gamemap
                0x0000000000666c94                d_skill
                0x0000000000666c98                levelstarttic
                0x0000000000666c9c                mousex
                0x0000000000666ca0                deathmatch
                0x0000000000666ca4                secretexit
                0x0000000000666ca8                wminfo
                0x0000000000666d70                testcontrols_mousespeed
                0x0000000000666d74                totalitems
                0x0000000000666d78                d_episode
                0x0000000000666d7c                totalkills
                0x0000000000666d80                demobuffer
                0x0000000000666d90                consistancy
                0x0000000000666f90                demoend
                0x0000000000666fa0                bodyque
                0x00000000006670a0                gameaction
                0x00000000006670a4                paused
                0x00000000006670a8                gameskill
                0x00000000006670ac                usergame
                0x00000000006670b0                savename
                0x00000000006671b0                longtics
                0x00000000006671b4                consoleplayer
                0x00000000006671b8                netdemo
                0x00000000006671bc                timingdemo
                0x00000000006671c0                gameepisode
                0x00000000006671c4                demorecording
                0x00000000006671c8                sendpause
                0x00000000006671cc                oldgamestate
                0x00000000006671d0                playeringame
 COMMON         0x00000000006671e0      0x201 build/hu_stuff.o
                0x00000000006671e0                hu_font
                0x00000000006673d8                chat_on
                0x00000000006673dc                message_dontfuckwithme
                0x00000000006673e0                chat_char
 *fill*         0x00000000006673e1        0x7 
 COMMON         0x00000000006673e8       0x10 build/m_argv.o
                0x00000000006673e8                myargc
                0x00000000006673f0                myargv
 COMMON         0x00000000006673f8        0x8 build/m_config.o
                0x00000000006673f8                configdir
 COMMON         0x0000000000667400       0x20 build/m_controls.o
                0x0000000000667400                key_multi_msgplayer
 COMMON         0x0000000000667420      0x29c build/m_menu.o
                0x0000000000667420                sound_e
                0x0000000000667430                savegamestrings
                0x0000000000667520                epi
                0x0000000000667524                messy
                0x0000000000667528                main_e
                0x000000000066752c                skullAnimCounter
                0x0000000000667530                saveStringEnter
                0x0000000000667534                messageLastMenuActive
                0x0000000000667538                itemOn
                0x000000000066753c                messageNeedsInput
                0x0000000000667540                menuactive
                0x0000000000667550                tempstring
                0x00000000006675a0                quickSaveSlot
                0x00000000006675a4                read_e
                0x00000000006675a8                messx
                0x00000000006675b0                endstring
                0x0000000000667650                saveSlot
                0x0000000000667660                saveOldString
                0x0000000000667678                whichSkull
                0x000000000066767c                options_e
                0x0000000000667680                load_e
                0x0000000000667684                saveCharIndex
                0x0000000000667688                currentMenu
                0x0000000000667690                episodes_e
                0x0000000000667694                inhelpscreens
                0x0000000000667698                messageString
                0x00000000006676a0                screenSize
                0x00000000006676a4                newgame_e
                0x00000000006676a8                messageToPrint
                0x00000000006676b0                messageRoutine
                0x00000000006676b8                read_e2
 *fill*         0x00000000006676bc        0x4 
 COMMON         0x00000000006676c0       0xf0 build/p_ceilng.o
                0x00000000006676c0                activeceilings
 COMMON         0x00000000006677b0      0x128 build/p_enemy.o
                0x00000000006677b0                soundtarget
                0x00000000006677b8                corpsehit
                0x00000000006677c0                braintargets
                0x00000000006678c0                viletryy
                0x00000000006678c4                numbraintargets
                0x00000000006678c8                viletryx
                0x00000000006678d0                vileobj
 *fill*         0x00000000006678d8        0x8 
 COMMON         0x00000000006678e0      0x164 build/p_map.o
                0x00000000006678e0                bombdamage
                0x00000000006678e8                ceilingline
                0x00000000006678f0                bestslideline
                0x0000000000667900                spechit
                0x00000000006679a0                usething
                0x00000000006679a8                tmymove
                0x00000000006679ac                shootz
                0x00000000006679b0                bombspot
                0x00000000006679b8                shootthing
                0x00000000006679c0                floatok
                0x00000000006679c4                tmfloorz
                0x00000000006679d0                tmbbox
                0x00000000006679e0                bombsource
                0x00000000006679e8                linetarget
                0x00000000006679f0                nofit
                0x00000000006679f4                aimslope
                0x00000000006679f8                crushchange
                0x00000000006679fc                tmx
                0x0000000000667a00                tmflags
                0x0000000000667a04                tmdropoffz
                0x0000000000667a08                slidemo
                0x0000000000667a10                secondslideline
                0x0000000000667a18                tmxmove
                0x0000000000667a1c                secondslidefrac
                0x0000000000667a20                numspechit
                0x0000000000667a24                tmceilingz
                0x0000000000667a28                tmy
                0x0000000000667a30                tmthing
                0x0000000000667a38                attackrange
                0x0000000000667a3c                la_damage
                0x0000000000667a40                bestslidefrac
 *fill*         0x0000000000667a44        0xc 
 COMMON         0x0000000000667a50      0xc00 build/p_maputl.o
                0x0000000000667a50                intercept_p
                0x0000000000667a58                earlyout
                0x0000000000667a5c                ptflags
                0x0000000000667a60                trace
                0x0000000000667a70                lowfloor
                0x0000000000667a74                openbottom
                0x0000000000667a78                openrange
                0x0000000000667a7c                opentop
                0x0000000000667a80                intercepts
 COMMON         0x0000000000668650      0x710 build/p_mobj.o
                0x0000000000668650                itemrespawnque
                0x0000000000668b50                iquetail
                0x0000000000668b54                test
                0x0000000000668b58                iquehead
                0x0000000000668b60                itemrespawntime
 COMMON         0x0000000000668d60       0xf0 build/p_plats.o
                0x0000000000668d60                activeplats
 COMMON         0x0000000000668e50        0xc build/p_pspr.o
                0x0000000000668e50                swingx
                0x0000000000668e54                bulletslope
                0x0000000000668e58                swingy
 *fill*         0x0000000000668e5c        0x4 
 COMMON         0x0000000000668e60       0x18 build/p_saveg.o
                0x0000000000668e60                savegamelength
                0x0000000000668e68                save_stream
                0x0000000000668e70                specials_e
                0x0000000000668e74                savegame_error
 *fill*         0x0000000000668e78        0x8 
 COMMON         0x0000000000668e80      0x138 build/p_setup.o
                0x0000000000668e80                numlines
                0x0000000000668e84                numsectors
                0x0000000000668e88                lines
                0x0000000000668e90                bmapheight
                0x0000000000668e98                rejectmatrix
                0x0000000000668ea0                vertexes
                0x0000000000668ea8                segs
                0x0000000000668eb0                numsides
                0x0000000000668eb8                blocklinks
                0x0000000000668ec0                blockmaplump
                0x0000000000668ec8                sides
                0x0000000000668ed0                nodes
                0x0000000000668ed8                numnodes
                0x0000000000668ee0                sectors
                0x0000000000668ee8                bmaporgy
                0x0000000000668eec                numvertexes
                0x0000000000668ef0                numsegs
                0x0000000000668ef4                bmaporgx
                0x0000000000668ef8                blockmap
                0x0000000000668f00                bmapwidth
                0x0000000000668f04                numsubsectors
                0x0000000000668f10                deathmatchstarts
                0x0000000000668f80                playerstarts
                0x0000000000668fa8                subsectors
                0x0000000000668fb0                deathmatch_p
 COMMON         0x0000000000668fb8       0x2c build/p_sight.o
                0x0000000000668fb8                bottomslope
                0x0000000000668fbc                t2x
                0x0000000000668fc0                t2y
                0x0000000000668fc4                topslope
                0x0000000000668fc8                sightzstart
                0x0000000000668fcc                strace
                0x0000000000668fdc                sightcounts
 *fill*         0x0000000000668fe4        0xc 
 COMMON         0x0000000000668ff0      0x492 build/p_spec.o
                0x0000000000668ff0                lastanim
                0x0000000000668ff8                levelTimeCount
                0x0000000000668ffc                levelTimer
                0x0000000000669000                anims
                0x0000000000669280                linespeciallist
                0x0000000000669480                numlinespecials
 *fill*         0x0000000000669482        0xe 
 COMMON         0x0000000000669490      0x3a0 build/p_switch.o
                0x0000000000669490                numswitches
                0x00000000006694a0                buttonlist
                0x00000000006696a0                switchlist
 COMMON         0x0000000000669830       0x20 build/p_tick.o
                0x0000000000669830                leveltime
                0x0000000000669838                thinkercap
 COMMON         0x0000000000669850        0x4 build/p_user.o
                0x0000000000669850                onground
 *fill*         0x0000000000669854        0xc 
 COMMON         0x0000000000669860     0x4138 build/r_bsp.o
                0x0000000000669860                drawsegs
                0x000000000066d860                frontsector
                0x000000000066d868                linedef
                0x000000000066d870                backsector
                0x000000000066d878                newend
                0x000000000066d880                solidsegs
                0x000000000066d980                ds_p
                0x000000000066d988                sidedef
                0x000000000066d990                curline
 COMMON         0x000000000066d998       0xb4 build/r_data.o
                0x000000000066d998                textureheight
                0x000000000066d9a0                flatmemory
                0x000000000066d9a4                firstflat
                0x000000000066d9a8                texturetranslation
                0x000000000066d9b0                lastpatch
                0x000000000066d9b4                numspritelumps
                0x000000000066d9b8                spritememory
                0x000000000066d9c0                spritetopoffset
                0x000000000066d9c8                textures
                0x000000000066d9d0                flattranslation
                0x000000000066d9d8                numpatches
                0x000000000066d9e0                colormaps
                0x000000000066d9e8                firstspritelump
                0x000000000066d9ec                firstpatch
                0x000000000066d9f0                texturecompositesize
                0x000000000066d9f8                lastspritelump
                0x000000000066d9fc                lastflat
                0x000000000066da00                texturememory
                0x000000000066da08                textures_hashtable
                0x000000000066da10                texturecolumnofs
                0x000000000066da18                spriteoffset
                0x000000000066da20                texturecolumnlump
                0x000000000066da28                spritewidth
                0x000000000066da30                numflats
                0x000000000066da38                texturewidthmask
                0x000000000066da40                texturecomposite
                0x000000000066da48                numtextures
 *fill*         0x000000000066da4c        0x4 
 COMMON         0x000000000066da50     0x2f20 build/r_draw.o
                0x000000000066da50                translationtables
                0x000000000066da58                dc_texturemid
                0x000000000066da5c                dc_iscale
                0x000000000066da60                ds_x1
                0x000000000066da64                dc_yl
                0x000000000066da68                dc_yh
                0x000000000066da70                ds_colormap
                0x000000000066da78                ds_xstep
                0x000000000066da80                dc_colormap
                0x000000000066da88                dc_translation
                0x000000000066da90                scaledviewwidth
                0x000000000066da98                viewimage
                0x000000000066daa0                translations
                0x000000000066dda0                ds_ystep
                0x000000000066dda4                viewheight
                0x000000000066dda8                dc_source
                0x000000000066ddb0                dscount
                0x000000000066ddb4                viewwindowx
                0x000000000066ddb8                ds_y
                0x000000000066ddbc                dccount
                0x000000000066ddc0                ds_xfrac
                0x000000000066ddc4                ds_x2
                0x000000000066ddc8                dc_x
                0x000000000066ddd0                columnofs
                0x000000000066ef50                viewwidth
                0x000000000066ef54                viewwindowy
                0x000000000066ef58                ds_source
                0x000000000066ef60                ds_yfrac
                0x000000000066ef70                ylookup
 COMMON         0x0000000000670970     0x9f4c build/r_main.o
                0x0000000000670970                sscount
                0x0000000000670974                viewcos
                0x0000000000670978                setdetail
                0x000000000067097c                centerxfrac
                0x0000000000670980                scalelight
                0x0000000000672180                extralight
                0x0000000000672188                viewplayer
                0x0000000000672190                colfunc
                0x0000000000672198                setblocks
                0x000000000067219c                centeryfrac
                0x00000000006721a0                viewangle
                0x00000000006721a8                fixedcolormap
                0x00000000006721b0                clipangle
                0x00000000006721c0                scalelightfixed
                0x0000000000672340                viewangleoffset
                0x0000000000672350                viewangletox
                0x0000000000676350                viewx
                0x0000000000676354                detailshift
                0x0000000000676358                viewsin
                0x000000000067635c                framecount
                0x0000000000676360                transcolfunc
                0x0000000000676368                centerx
                0x0000000000676370                spanfunc
                0x0000000000676378                viewy
                0x000000000067637c                setsizeneeded
                0x0000000000676380                loopcount
                0x0000000000676390                zlight
                0x000000000067a390                xtoviewangle
                0x000000000067a898                fuzzcolfunc
                0x000000000067a8a0                linecount
                0x000000000067a8a8                basecolfunc
                0x000000000067a8b0                centery
                0x000000000067a8b4                projection
                0x000000000067a8b8                viewz
 *fill*         0x000000000067a8bc        0x4 
 COMMON         0x000000000067a8c0    0x20c38 build/r_plane.o
                0x000000000067a8c0                cachedxstep
                0x000000000067abe0                floorclip
                0x000000000067ae60                baseyscale
                0x000000000067ae68                ceilingfunc
                0x000000000067ae70                spanstart
                0x000000000067b190                lastvisplane
                0x000000000067b198                ceilingplane
                0x000000000067b1a0                cachedystep
                0x000000000067b4c0                basexscale
                0x000000000067b4c4                planeheight
                0x000000000067b4d0                ceilingclip
                0x000000000067b750                cacheddistance
                0x000000000067ba70                yslope
                0x000000000067bd90                cachedheight
                0x000000000067c0b0                floorplane
                0x000000000067c0b8                lastopening
                0x000000000067c0c0                distscale
                0x000000000067c5c0                planezlight
                0x000000000067c5d0                openings
                0x00000000006865d0                visplanes
                0x000000000069b1d0                spanstop
                0x000000000069b4f0                floorfunc
 COMMON         0x000000000069b4f8       0x94 build/r_segs.o
                0x000000000069b4f8                bottomtexture
                0x000000000069b4fc                midtexture
                0x000000000069b500                toptexture
                0x000000000069b508                walllights
                0x000000000069b510                segtextured
                0x000000000069b514                rw_midtexturemid
                0x000000000069b518                rw_toptexturemid
                0x000000000069b51c                rw_scale
                0x000000000069b520                rw_x
                0x000000000069b524                rw_stopx
                0x000000000069b528                bottomstep
                0x000000000069b52c                worldbottom
                0x000000000069b530                rw_centerangle
                0x000000000069b534                rw_distance
                0x000000000069b538                worldlow
                0x000000000069b53c                rw_offset
                0x000000000069b540                pixhigh
                0x000000000069b544                worldhigh
                0x000000000069b548                pixlow
                0x000000000069b54c                bottomfrac
                0x000000000069b550                markceiling
                0x000000000069b554                rw_normalangle
                0x000000000069b558                worldtop
                0x000000000069b55c                rw_angle1
                0x000000000069b560                topstep
                0x000000000069b564                maskedtexture
                0x000000000069b568                topfrac
                0x000000000069b570                maskedtexturecol
                0x000000000069b578                rw_scalestep
                0x000000000069b57c                pixlowstep
                0x000000000069b580                markfloor
                0x000000000069b584                pixhighstep
                0x000000000069b588                rw_bottomtexturemid
 COMMON         0x000000000069b58c        0xc build/r_sky.o
                0x000000000069b58c                skytexturemid
                0x000000000069b590                skyflatnum
                0x000000000069b594                skytexture
 *fill*         0x000000000069b598        0x8 
 COMMON         0x000000000069b5a0     0x312c build/r_things.o
                0x000000000069b5a0                screenheightarray
                0x000000000069b820                pspritescale
                0x000000000069b828                overflowsprite
                0x000000000069b880                vissprites
                0x000000000069e080                vsprsortedhead
                0x000000000069e0d0                mceilingclip
                0x000000000069e0d8                mfloorclip
                0x000000000069e0e0                negonearray
                0x000000000069e360                newvissprite
                0x000000000069e364                numsprites
                0x000000000069e368                sprites
                0x000000000069e370                sprtopscreen
                0x000000000069e378                spritelights
                0x000000000069e380                spryscale
                0x000000000069e384                pspriteiscale
                0x000000000069e388                vissprite_p
                0x000000000069e390                sprtemp
                0x000000000069e6c0                spritename
                0x000000000069e6c8                maxframe
 *fill*         0x000000000069e6cc        0x4 
 COMMON         0x000000000069e6d0        0x8 build/st_lib.o
                0x000000000069e6d0                sttminus
 COMMON         0x000000000069e6d8        0x8 build/st_stuff.o
                0x000000000069e6d8                st_backing_screen
 COMMON         0x000000000069e6e0       0x10 build/v_video.o
                0x000000000069e6e0                dirtybox
 COMMON         0x000000000069e6f0        0x8 build/w_wad.o
                0x000000000069e6f0                lumpinfo
 COMMON         0x000000000069e6f8        0x8 build/z_zone.o
                0x000000000069e6f8                mainzone
 COMMON         0x000000000069e700        0x4 build/i_video.o
                0x000000000069e700                screenvisible
                0x000000000069e708                . = ALIGN ((. != 0x0)?0x8:0x1)
 *fill*         0x000000000069e704        0x4 

.lbss
 *(.dynlbss)
 *(.lbss .lbss.* .gnu.linkonce.lb.*)
 *(LARGE_COMMON)
                0x000000000069e708                . = ALIGN (0x8)
                0x000000000069e708                . = SEGMENT_START ("ldata-segment", .)

.lrodata
 *(.lrodata .lrodata.* .gnu.linkonce.lr.*)

.ldata          0x0000000000a9e708        0x0
 *(.ldata .ldata.* .gnu.linkonce.l.*)
                0x0000000000a9e708                . = ALIGN ((. != 0x0)?0x8:0x1)
                0x0000000000a9e708                . = ALIGN (0x8)
                0x0000000000a9e708                _end = .
                [!provide]                        PROVIDE (end = .)
                0x0000000000a9e708                . = DATA_SEGMENT_END (.)

.stab
 *(.stab)

.stabstr
 *(.stabstr)

.stab.excl
 *(.stab.excl)

.stab.exclstr
 *(.stab.exclstr)

.stab.index
 *(.stab.index)

.stab.indexstr
 *(.stab.indexstr)

.comment        0x0000000000000000       0x5f
 *(.comment)
 .comment       0x0000000000000000       0x29 /usr/bin/../lib/gcc/x86_64-linux-gnu/7.5.0/crtbegin.o
                                         0x2a (size before relaxing)
 .comment       0x0000000000000029       0x36 build/dummy.o
                                         0x37 (size before relaxing)
 .comment       0x000000000000005f       0x37 build/am_map.o
 .comment       0x000000000000005f       0x37 build/doomstat.o
 .comment       0x000000000000005f       0x37 build/dstrings.o
 .comment       0x000000000000005f       0x37 build/d_event.o
 .comment       0x000000000000005f       0x37 build/d_items.o
 .comment       0x000000000000005f       0x37 build/d_iwad.o
 .comment       0x000000000000005f       0x37 build/d_loop.o
 .comment       0x000000000000005f       0x37 build/d_main.o
 .comment       0x000000000000005f       0x37 build/d_mode.o
 .comment       0x000000000000005f       0x37 build/d_net.o
 .comment       0x000000000000005f       0x37 build/f_finale.o
 .comment       0x000000000000005f       0x37 build/f_wipe.o
 .comment       0x000000000000005f       0x37 build/g_game.o
 .comment       0x000000000000005f       0x37 build/hu_lib.o
 .comment       0x000000000000005f       0x37 build/hu_stuff.o
 .comment       0x000000000000005f       0x37 build/info.o
 .comment       0x000000000000005f       0x37 build/i_cdmus.o
 .comment       0x000000000000005f       0x37 build/i_endoom.o
 .comment       0x000000000000005f       0x37 build/i_joystick.o
 .comment       0x000000000000005f       0x37 build/i_scale.o
 .comment       0x000000000000005f       0x37 build/i_sound.o
 .comment       0x000000000000005f       0x37 build/i_system.o
 .comment       0x000000000000005f       0x37 build/i_timer.o
 .comment       0x000000000000005f       0x37 build/memio.o
 .comment       0x000000000000005f       0x37 build/m_argv.o
 .comment       0x000000000000005f       0x37 build/m_bbox.o
 .comment       0x000000000000005f       0x37 build/m_cheat.o
 .comment       0x000000000000005f       0x37 build/m_config.o
 .comment       0x000000000000005f       0x37 build/m_controls.o
 .comment       0x000000000000005f       0x37 build/m_fixed.o
 .comment       0x000000000000005f       0x37 build/m_menu.o
 .comment       0x000000000000005f       0x37 build/m_misc.o
 .comment       0x000000000000005f       0x37 build/m_random.o
 .comment       0x000000000000005f       0x37 build/p_ceilng.o
 .comment       0x000000000000005f       0x37 build/p_doors.o
 .comment       0x000000000000005f       0x37 build/p_enemy.o
 .comment       0x000000000000005f       0x37 build/p_floor.o
 .comment       0x000000000000005f       0x37 build/p_inter.o
 .comment       0x000000000000005f       0x37 build/p_lights.o
 .comment       0x000000000000005f       0x37 build/p_map.o
 .comment       0x000000000000005f       0x37 build/p_maputl.o
 .comment       0x000000000000005f       0x37 build/p_mobj.o
 .comment       0x000000000000005f       0x37 build/p_plats.o
 .comment       0x000000000000005f       0x37 build/p_pspr.o
 .comment       0x000000000000005f       0x37 build/p_saveg.o
 .comment       0x000000000000005f       0x37 build/p_setup.o
 .comment       0x000000000000005f       0x37 build/p_sight.o
 .comment       0x000000000000005f       0x37 build/p_spec.o
 .comment       0x000000000000005f       0x37 build/p_switch.o
 .comment       0x000000000000005f       0x37 build/p_telept.o
 .comment       0x000000000000005f       0x37 build/p_tick.o
 .comment       0x000000000000005f       0x37 build/p_user.o
 .comment       0x000000000000005f       0x37 build/r_bsp.o
 .comment       0x000000000000005f       0x37 build/r_data.o
 .comment       0x000000000000005f       0x37 build/r_draw.o
 .comment       0x000000000000005f       0x37 build/r_main.o
 .comment       0x000000000000005f       0x37 build/r_plane.o
 .comment       0x000000000000005f       0x37 build/r_segs.o
 .comment       0x000000000000005f       0x37 build/r_sky.o
 .comment       0x000000000000005f       0x37 build/r_things.o
 .comment       0x000000000000005f       0x37 build/sha1.o
 .comment       0x000000000000005f       0x37 build/sounds.o
 .comment       0x000000000000005f       0x37 build/statdump.o
 .comment       0x000000000000005f       0x37 build/st_lib.o
 .comment       0x000000000000005f       0x37 build/st_stuff.o
 .comment       0x000000000000005f       0x37 build/s_sound.o
 .comment       0x000000000000005f       0x37 build/tables.o
 .comment       0x000000000000005f       0x37 build/v_video.o
 .comment       0x000000000000005f       0x37 build/wi_stuff.o
 .comment       0x000000000000005f       0x37 build/w_checksum.o
 .comment       0x000000000000005f       0x37 build/w_file.o
 .comment       0x000000000000005f       0x37 build/w_main.o
 .comment       0x000000000000005f       0x37 build/w_wad.o
 .comment       0x000000000000005f       0x37 build/z_zone.o
 .comment       0x000000000000005f       0x37 build/w_file_stdc.o
 .comment       0x000000000000005f       0x37 build/i_input.o
 .comment       0x000000000000005f       0x37 build/i_video.o
 .comment       0x000000000000005f       0x37 build/doomgeneric.o
 .comment       0x000000000000005f       0x37 build/doomgeneric_xlib.o
 .comment       0x000000000000005f       0x2a /usr/bin/../lib/gcc/x86_64-linux-gnu/7.5.0/crtend.o

.debug
 *(.debug)

.line
 *(.line)

.debug_srcinfo
 *(.debug_srcinfo)

.debug_sfnames
 *(.debug_sfnames)

.debug_aranges
 *(.debug_aranges)

.debug_pubnames
                0x0000000000000000     0x8803
 *(.debug_pubnames)
 .debug_pubnames
                0x0000000000000000       0x4e build/dummy.o
 .debug_pubnames
                0x000000000000004e      0x5b1 build/am_map.o
 .debug_pubnames
                0x00000000000005ff       0x64 build/doomstat.o
 .debug_pubnames
                0x0000000000000663       0x34 build/dstrings.o
 .debug_pubnames
                0x0000000000000697       0x58 build/d_event.o
 .debug_pubnames
                0x00000000000006ef       0x21 build/d_items.o
 .debug_pubnames
                0x0000000000000710      0x15e build/d_iwad.o
 .debug_pubnames
                0x000000000000086e      0x237 build/d_loop.o
 .debug_pubnames
                0x0000000000000aa5      0x394 build/d_main.o
 .debug_pubnames
                0x0000000000000e39       0xb6 build/d_mode.o
 .debug_pubnames
                0x0000000000000eef       0xc6 build/d_net.o
 .debug_pubnames
                0x0000000000000fb5      0x1bf build/f_finale.o
 .debug_pubnames
                0x0000000000001174      0x12d build/f_wipe.o
 .debug_pubnames
                0x00000000000012a1      0x7bb build/g_game.o
 .debug_pubnames
                0x0000000000001a5c      0x1e5 build/hu_lib.o
 .debug_pubnames
                0x0000000000001c41      0x222 build/hu_stuff.o
 .debug_pubnames
                0x0000000000001e63       0x37 build/info.o
 .debug_pubnames
                0x0000000000001e9a       0xd0 build/i_cdmus.o
 .debug_pubnames
                0x0000000000001f6a       0x1f build/i_endoom.o
 .debug_pubnames
                0x0000000000001f89      0x136 build/i_joystick.o
 .debug_pubnames
                0x00000000000020bf      0x3ff build/i_scale.o
 .debug_pubnames
                0x00000000000024be      0x26e build/i_sound.o
 .debug_pubnames
                0x000000000000272c      0x1b3 build/i_system.o
 .debug_pubnames
                0x00000000000028df       0x76 build/i_timer.o
 .debug_pubnames
                0x0000000000002955       0x91 build/memio.o
 .debug_pubnames
                0x00000000000029e6       0x90 build/m_argv.o
 .debug_pubnames
                0x0000000000002a76       0x30 build/m_bbox.o
 .debug_pubnames
                0x0000000000002aa6       0x36 build/m_cheat.o
 .debug_pubnames
                0x0000000000002adc      0x205 build/m_config.o
 .debug_pubnames
                0x0000000000002ce1      0x881 build/m_controls.o
 .debug_pubnames
                0x0000000000003562       0x2c build/m_fixed.o
 .debug_pubnames
                0x000000000000358e      0x7a9 build/m_menu.o
 .debug_pubnames
                0x0000000000003d37      0x16b build/m_misc.o
 .debug_pubnames
                0x0000000000003ea2       0x66 build/m_random.o
 .debug_pubnames
                0x0000000000003f08       0xaf build/p_ceilng.o
 .debug_pubnames
                0x0000000000003fb7       0x90 build/p_doors.o
 .debug_pubnames
                0x0000000000004047      0x4fa build/p_enemy.o
 .debug_pubnames
                0x0000000000004541       0x54 build/p_floor.o
 .debug_pubnames
                0x0000000000004595       0xc1 build/p_inter.o
 .debug_pubnames
                0x0000000000004656       0xf3 build/p_lights.o
 .debug_pubnames
                0x0000000000004749      0x35b build/p_map.o
 .debug_pubnames
                0x0000000000004aa4      0x228 build/p_maputl.o
 .debug_pubnames
                0x0000000000004ccc      0x1b3 build/p_mobj.o
 .debug_pubnames
                0x0000000000004e7f       0x92 build/p_plats.o
 .debug_pubnames
                0x0000000000004f11      0x20f build/p_pspr.o
 .debug_pubnames
                0x0000000000005120      0x4e3 build/p_saveg.o
 .debug_pubnames
                0x0000000000005603      0x2be build/p_setup.o
 .debug_pubnames
                0x00000000000058c1       0xcc build/p_sight.o
 .debug_pubnames
                0x000000000000598d      0x273 build/p_spec.o
 .debug_pubnames
                0x0000000000005c00       0xa9 build/p_switch.o
 .debug_pubnames
                0x0000000000005ca9       0x22 build/p_telept.o
 .debug_pubnames
                0x0000000000005ccb       0x9c build/p_tick.o
 .debug_pubnames
                0x0000000000005d67       0x71 build/p_user.o
 .debug_pubnames
                0x0000000000005dd8      0x132 build/r_bsp.o
 .debug_pubnames
                0x0000000000005f0a      0x320 build/r_data.o
 .debug_pubnames
                0x000000000000622a      0x2ec build/r_draw.o
 .debug_pubnames
                0x0000000000006516      0x368 build/r_main.o
 .debug_pubnames
                0x000000000000687e      0x1d4 build/r_plane.o
 .debug_pubnames
                0x0000000000006a52      0x256 build/r_segs.o
 .debug_pubnames
                0x0000000000006ca8       0x53 build/r_sky.o
 .debug_pubnames
                0x0000000000006cfb      0x272 build/r_things.o
 .debug_pubnames
                0x0000000000006f6d       0x78 build/sha1.o
 .debug_pubnames
                0x0000000000006fe5       0x28 build/sounds.o
 .debug_pubnames
                0x000000000000700d       0x56 build/statdump.o
 .debug_pubnames
                0x0000000000007063       0xf2 build/st_lib.o
 .debug_pubnames
                0x0000000000007155      0x52b build/st_stuff.o
 .debug_pubnames
                0x0000000000007680      0x1a5 build/s_sound.o
 .debug_pubnames
                0x0000000000007825       0x69 build/tables.o
 .debug_pubnames
                0x000000000000788e      0x224 build/v_video.o
 .debug_pubnames
                0x0000000000007ab2      0x592 build/wi_stuff.o
 .debug_pubnames
                0x0000000000008044       0x6f build/w_checksum.o
 .debug_pubnames
                0x00000000000080b3       0x51 build/w_file.o
 .debug_pubnames
                0x0000000000008104       0x29 build/w_main.o
 .debug_pubnames
                0x000000000000812d      0x158 build/w_wad.o
 .debug_pubnames
                0x0000000000008285       0xd5 build/z_zone.o
 .debug_pubnames
                0x000000000000835a       0x5d build/w_file_stdc.o
 .debug_pubnames
                0x00000000000083b7       0x92 build/i_input.o
 .debug_pubnames
                0x0000000000008449      0x25c build/i_video.o
 .debug_pubnames
                0x00000000000086a5       0x3d build/doomgeneric.o
 .debug_pubnames
                0x00000000000086e2      0x121 build/doomgeneric_xlib.o

.debug_info     0x0000000000000000    0x8075a
 *(.debug_info .gnu.linkonce.wi.*)
 .debug_info    0x0000000000000000       0x8c build/dummy.o
 .debug_info    0x000000000000008c     0x3d3f build/am_map.o
 .debug_info    0x0000000000003dcb      0x194 build/doomstat.o
 .debug_info    0x0000000000003f5f       0x68 build/dstrings.o
 .debug_info    0x0000000000003fc7      0x14f build/d_event.o
 .debug_info    0x0000000000004116       0xda build/d_items.o
 .debug_info    0x00000000000041f0      0x61b build/d_iwad.o
 .debug_info    0x000000000000480b      0x979 build/d_loop.o
 .debug_info    0x0000000000005184      0xdc2 build/d_main.o
 .debug_info    0x0000000000005f46      0x35b build/d_mode.o
 .debug_info    0x00000000000062a1     0x2dab build/d_net.o
 .debug_info    0x000000000000904c     0x30a2 build/f_finale.o
 .debug_info    0x000000000000c0ee      0x582 build/f_wipe.o
 .debug_info    0x000000000000c670     0x462b build/g_game.o
 .debug_info    0x0000000000010c9b      0x944 build/hu_lib.o
 .debug_info    0x00000000000115df     0x3718 build/hu_stuff.o
 .debug_info    0x0000000000014cf7     0x20a9 build/info.o
 .debug_info    0x0000000000016da0      0x14e build/i_cdmus.o
 .debug_info    0x0000000000016eee       0x7b build/i_endoom.o
 .debug_info    0x0000000000016f69      0x199 build/i_joystick.o
 .debug_info    0x0000000000017102     0x1d88 build/i_scale.o
 .debug_info    0x0000000000018e8a      0x767 build/i_sound.o
 .debug_info    0x00000000000195f1      0x670 build/i_system.o
 .debug_info    0x0000000000019c61      0x156 build/i_timer.o
 .debug_info    0x0000000000019db7      0x373 build/memio.o
 .debug_info    0x000000000001a12a      0x19b build/m_argv.o
 .debug_info    0x000000000001a2c5       0xc1 build/m_bbox.o
 .debug_info    0x000000000001a386      0x14f build/m_cheat.o
 .debug_info    0x000000000001a4d5      0x5dd build/m_config.o
 .debug_info    0x000000000001aab2      0xa44 build/m_controls.o
 .debug_info    0x000000000001b4f6       0xe1 build/m_fixed.o
 .debug_info    0x000000000001b5d7     0x1d7a build/m_menu.o
 .debug_info    0x000000000001d351      0xaa1 build/m_misc.o
 .debug_info    0x000000000001ddf2       0xd8 build/m_random.o
 .debug_info    0x000000000001deca     0x3289 build/p_ceilng.o
 .debug_info    0x0000000000021153     0x33b5 build/p_doors.o
 .debug_info    0x0000000000024508     0x448b build/p_enemy.o
 .debug_info    0x0000000000028993     0x336b build/p_floor.o
 .debug_info    0x000000000002bcfe     0x37d4 build/p_inter.o
 .debug_info    0x000000000002f4d2     0x30fe build/p_lights.o
 .debug_info    0x00000000000325d0     0x3cc1 build/p_map.o
 .debug_info    0x0000000000036291     0x3776 build/p_maputl.o
 .debug_info    0x0000000000039a07     0x3817 build/p_mobj.o
 .debug_info    0x000000000003d21e     0x32b9 build/p_plats.o
 .debug_info    0x00000000000404d7     0x38f3 build/p_pspr.o
 .debug_info    0x0000000000043dca     0x46b8 build/p_saveg.o
 .debug_info    0x0000000000048482     0x3a1b build/p_setup.o
 .debug_info    0x000000000004be9d     0x317c build/p_sight.o
 .debug_info    0x000000000004f019     0x3ba0 build/p_spec.o
 .debug_info    0x0000000000052bb9     0x32e1 build/p_switch.o
 .debug_info    0x0000000000055e9a     0x3146 build/p_telept.o
 .debug_info    0x0000000000058fe0      0x1e8 build/p_tick.o
 .debug_info    0x00000000000591c8     0x2f57 build/p_user.o
 .debug_info    0x000000000005c11f     0x32c8 build/r_bsp.o
 .debug_info    0x000000000005f3e7     0x3837 build/r_data.o
 .debug_info    0x0000000000062c1e      0x962 build/r_draw.o
 .debug_info    0x0000000000063580     0x3742 build/r_main.o
 .debug_info    0x0000000000066cc2      0x65f build/r_plane.o
 .debug_info    0x0000000000067321     0x32aa build/r_segs.o
 .debug_info    0x000000000006a5cb       0x86 build/r_sky.o
 .debug_info    0x000000000006a651     0x3967 build/r_things.o
 .debug_info    0x000000000006dfb8      0x3f8 build/sha1.o
 .debug_info    0x000000000006e3b0      0x159 build/sounds.o
 .debug_info    0x000000000006e509      0x1e3 build/statdump.o
 .debug_info    0x000000000006e6ec      0x6c8 build/st_lib.o
 .debug_info    0x000000000006edb4     0x40c6 build/st_stuff.o
 .debug_info    0x0000000000072e7a     0x37ca build/s_sound.o
 .debug_info    0x0000000000076644      0x185 build/tables.o
 .debug_info    0x00000000000767c9     0x117c build/v_video.o
 .debug_info    0x0000000000077945     0x4909 build/wi_stuff.o
 .debug_info    0x000000000007c24e      0x36f build/w_checksum.o
 .debug_info    0x000000000007c5bd      0x204 build/w_file.o
 .debug_info    0x000000000007c7c1       0xb5 build/w_main.o
 .debug_info    0x000000000007c876      0x83d build/w_wad.o
 .debug_info    0x000000000007d0b3      0x6db build/z_zone.o
 .debug_info    0x000000000007d78e      0x4b7 build/w_file_stdc.o
 .debug_info    0x000000000007dc45      0x1f9 build/i_input.o
 .debug_info    0x000000000007de3e      0x7d8 build/i_video.o
 .debug_info    0x000000000007e616       0xae build/doomgeneric.o
 .debug_info    0x000000000007e6c4     0x2096 build/doomgeneric_xlib.o

.debug_abbrev   0x0000000000000000     0x7901
 *(.debug_abbrev)
 .debug_abbrev  0x0000000000000000       0x5e build/dummy.o
 .debug_abbrev  0x000000000000005e      0x26a build/am_map.o
 .debug_abbrev  0x00000000000002c8       0x57 build/doomstat.o
 .debug_abbrev  0x000000000000031f       0x51 build/dstrings.o
 .debug_abbrev  0x0000000000000370       0xd8 build/d_event.o
 .debug_abbrev  0x0000000000000448       0x85 build/d_items.o
 .debug_abbrev  0x00000000000004cd      0x184 build/d_iwad.o
 .debug_abbrev  0x0000000000000651      0x251 build/d_loop.o
 .debug_abbrev  0x00000000000008a2      0x297 build/d_main.o
 .debug_abbrev  0x0000000000000b39       0xd2 build/d_mode.o
 .debug_abbrev  0x0000000000000c0b      0x1cf build/d_net.o
 .debug_abbrev  0x0000000000000dda      0x219 build/f_finale.o
 .debug_abbrev  0x0000000000000ff3      0x133 build/f_wipe.o
 .debug_abbrev  0x0000000000001126      0x323 build/g_game.o
 .debug_abbrev  0x0000000000001449      0x1fa build/hu_lib.o
 .debug_abbrev  0x0000000000001643      0x212 build/hu_stuff.o
 .debug_abbrev  0x0000000000001855       0xea build/info.o
 .debug_abbrev  0x000000000000193f       0x85 build/i_cdmus.o
 .debug_abbrev  0x00000000000019c4       0x5a build/i_endoom.o
 .debug_abbrev  0x0000000000001a1e       0xb2 build/i_joystick.o
 .debug_abbrev  0x0000000000001ad0      0x1f8 build/i_scale.o
 .debug_abbrev  0x0000000000001cc8      0x1b8 build/i_sound.o
 .debug_abbrev  0x0000000000001e80      0x271 build/i_system.o
 .debug_abbrev  0x00000000000020f1       0xcc build/i_timer.o
 .debug_abbrev  0x00000000000021bd       0xd2 build/memio.o
 .debug_abbrev  0x000000000000228f      0x107 build/m_argv.o
 .debug_abbrev  0x0000000000002396       0x7d build/m_bbox.o
 .debug_abbrev  0x0000000000002413       0xba build/m_cheat.o
 .debug_abbrev  0x00000000000024cd      0x198 build/m_config.o
 .debug_abbrev  0x0000000000002665       0xba build/m_controls.o
 .debug_abbrev  0x000000000000271f       0x7c build/m_fixed.o
 .debug_abbrev  0x000000000000279b      0x285 build/m_menu.o
 .debug_abbrev  0x0000000000002a20      0x1db build/m_misc.o
 .debug_abbrev  0x0000000000002bfb       0x90 build/m_random.o
 .debug_abbrev  0x0000000000002c8b      0x22b build/p_ceilng.o
 .debug_abbrev  0x0000000000002eb6      0x1a4 build/p_doors.o
 .debug_abbrev  0x000000000000305a      0x263 build/p_enemy.o
 .debug_abbrev  0x00000000000032bd      0x195 build/p_floor.o
 .debug_abbrev  0x0000000000003452      0x222 build/p_inter.o
 .debug_abbrev  0x0000000000003674      0x186 build/p_lights.o
 .debug_abbrev  0x00000000000037fa      0x21c build/p_map.o
 .debug_abbrev  0x0000000000003a16      0x223 build/p_maputl.o
 .debug_abbrev  0x0000000000003c39      0x1dd build/p_mobj.o
 .debug_abbrev  0x0000000000003e16      0x214 build/p_plats.o
 .debug_abbrev  0x000000000000402a      0x1ca build/p_pspr.o
 .debug_abbrev  0x00000000000041f4      0x2de build/p_saveg.o
 .debug_abbrev  0x00000000000044d2      0x22c build/p_setup.o
 .debug_abbrev  0x00000000000046fe      0x197 build/p_sight.o
 .debug_abbrev  0x0000000000004895      0x2d3 build/p_spec.o
 .debug_abbrev  0x0000000000004b68      0x16c build/p_switch.o
 .debug_abbrev  0x0000000000004cd4      0x144 build/p_telept.o
 .debug_abbrev  0x0000000000004e18       0xe0 build/p_tick.o
 .debug_abbrev  0x0000000000004ef8      0x146 build/p_user.o
 .debug_abbrev  0x000000000000503e      0x1e6 build/r_bsp.o
 .debug_abbrev  0x0000000000005224      0x202 build/r_data.o
 .debug_abbrev  0x0000000000005426      0x19e build/r_draw.o
 .debug_abbrev  0x00000000000055c4      0x254 build/r_main.o
 .debug_abbrev  0x0000000000005818      0x16c build/r_plane.o
 .debug_abbrev  0x0000000000005984      0x193 build/r_segs.o
 .debug_abbrev  0x0000000000005b17       0x48 build/r_sky.o
 .debug_abbrev  0x0000000000005b5f      0x21c build/r_things.o
 .debug_abbrev  0x0000000000005d7b      0x175 build/sha1.o
 .debug_abbrev  0x0000000000005ef0       0x8a build/sounds.o
 .debug_abbrev  0x0000000000005f7a       0xc7 build/statdump.o
 .debug_abbrev  0x0000000000006041      0x15e build/st_lib.o
 .debug_abbrev  0x000000000000619f      0x26f build/st_stuff.o
 .debug_abbrev  0x000000000000640e      0x2ab build/s_sound.o
 .debug_abbrev  0x00000000000066b9       0xb8 build/tables.o
 .debug_abbrev  0x0000000000006771      0x218 build/v_video.o
 .debug_abbrev  0x0000000000006989      0x25c build/wi_stuff.o
 .debug_abbrev  0x0000000000006be5      0x13a build/w_checksum.o
 .debug_abbrev  0x0000000000006d1f       0xf8 build/w_file.o
 .debug_abbrev  0x0000000000006e17       0x79 build/w_main.o
 .debug_abbrev  0x0000000000006e90      0x249 build/w_wad.o
 .debug_abbrev  0x00000000000070d9      0x176 build/z_zone.o
 .debug_abbrev  0x000000000000724f      0x13d build/w_file_stdc.o
 .debug_abbrev  0x000000000000738c      0x137 build/i_input.o
 .debug_abbrev  0x00000000000074c3      0x1d3 build/i_video.o
 .debug_abbrev  0x0000000000007696       0x6b build/doomgeneric.o
 .debug_abbrev  0x0000000000007701      0x200 build/doomgeneric_xlib.o

.debug_line     0x0000000000000000    0x1bdba
 *(.debug_line .debug_line.* .debug_line_end)
 .debug_line    0x0000000000000000       0x52 build/dummy.o
 .debug_line    0x0000000000000052     0x106b build/am_map.o
 .debug_line    0x00000000000010bd       0x48 build/doomstat.o
 .debug_line    0x0000000000001105       0x2c build/dstrings.o
 .debug_line    0x0000000000001131       0x9a build/d_event.o
 .debug_line    0x00000000000011cb       0x47 build/d_items.o
 .debug_line    0x0000000000001212      0x327 build/d_iwad.o
 .debug_line    0x0000000000001539      0x4b0 build/d_loop.o
 .debug_line    0x00000000000019e9      0xb09 build/d_main.o
 .debug_line    0x00000000000024f2      0x157 build/d_mode.o
 .debug_line    0x0000000000002649      0x370 build/d_net.o
 .debug_line    0x00000000000029b9      0x694 build/f_finale.o
 .debug_line    0x000000000000304d      0x37f build/f_wipe.o
 .debug_line    0x00000000000033cc     0x1512 build/g_game.o
 .debug_line    0x00000000000048de      0x4f0 build/hu_lib.o
 .debug_line    0x0000000000004dce      0x5aa build/hu_stuff.o
 .debug_line    0x0000000000005378       0x41 build/info.o
 .debug_line    0x00000000000053b9       0x8d build/i_cdmus.o
 .debug_line    0x0000000000005446       0x95 build/i_endoom.o
 .debug_line    0x00000000000054db       0x8b build/i_joystick.o
 .debug_line    0x0000000000005566     0x17ab build/i_scale.o
 .debug_line    0x0000000000006d11      0x108 build/i_sound.o
 .debug_line    0x0000000000006e19      0x397 build/i_system.o
 .debug_line    0x00000000000071b0       0xe5 build/i_timer.o
 .debug_line    0x0000000000007295      0x1d8 build/memio.o
 .debug_line    0x000000000000746d       0xc0 build/m_argv.o
 .debug_line    0x000000000000752d       0x9c build/m_bbox.o
 .debug_line    0x00000000000075c9      0x107 build/m_cheat.o
 .debug_line    0x00000000000076d0      0x2c5 build/m_config.o
 .debug_line    0x0000000000007995      0x112 build/m_controls.o
 .debug_line    0x0000000000007aa7       0xd1 build/m_fixed.o
 .debug_line    0x0000000000007b78     0x12f1 build/m_menu.o
 .debug_line    0x0000000000008e69      0x50f build/m_misc.o
 .debug_line    0x0000000000009378       0x7f build/m_random.o
 .debug_line    0x00000000000093f7      0x3b3 build/p_ceilng.o
 .debug_line    0x00000000000097aa      0x4e7 build/p_doors.o
 .debug_line    0x0000000000009c91     0x147b build/p_enemy.o
 .debug_line    0x000000000000b10c      0x58f build/p_floor.o
 .debug_line    0x000000000000b69b      0x9b8 build/p_inter.o
 .debug_line    0x000000000000c053      0x445 build/p_lights.o
 .debug_line    0x000000000000c498      0xeb9 build/p_map.o
 .debug_line    0x000000000000d351      0x914 build/p_maputl.o
 .debug_line    0x000000000000dc65      0xbab build/p_mobj.o
 .debug_line    0x000000000000e810      0x422 build/p_plats.o
 .debug_line    0x000000000000ec32      0x8cf build/p_pspr.o
 .debug_line    0x000000000000f501     0x154f build/p_saveg.o
 .debug_line    0x0000000000010a50      0xa01 build/p_setup.o
 .debug_line    0x0000000000011451      0x481 build/p_sight.o
 .debug_line    0x00000000000118d2      0xc6f build/p_spec.o
 .debug_line    0x0000000000012541      0x415 build/p_switch.o
 .debug_line    0x0000000000012956      0x232 build/p_telept.o
 .debug_line    0x0000000000012b88      0x117 build/p_tick.o
 .debug_line    0x0000000000012c9f      0x4bf build/p_user.o
 .debug_line    0x000000000001315e      0x57e build/r_bsp.o
 .debug_line    0x00000000000136dc      0xa69 build/r_data.o
 .debug_line    0x0000000000014145      0x7fb build/r_draw.o
 .debug_line    0x0000000000014940      0x76b build/r_main.o
 .debug_line    0x00000000000150ab      0x4b2 build/r_plane.o
 .debug_line    0x000000000001555d      0x9d0 build/r_segs.o
 .debug_line    0x0000000000015f2d       0x43 build/r_sky.o
 .debug_line    0x0000000000015f70      0xbec build/r_things.o
 .debug_line    0x0000000000016b5c      0x551 build/sha1.o
 .debug_line    0x00000000000170ad       0x39 build/sounds.o
 .debug_line    0x00000000000170e6       0x8d build/statdump.o
 .debug_line    0x0000000000017173      0x317 build/st_lib.o
 .debug_line    0x000000000001748a      0xd73 build/st_stuff.o
 .debug_line    0x00000000000181fd      0x649 build/s_sound.o
 .debug_line    0x0000000000018846       0xc0 build/tables.o
 .debug_line    0x0000000000018906      0xa47 build/v_video.o
 .debug_line    0x000000000001934d     0x1439 build/wi_stuff.o
 .debug_line    0x000000000001a786      0x177 build/w_checksum.o
 .debug_line    0x000000000001a8fd       0xf9 build/w_file.o
 .debug_line    0x000000000001a9f6       0x8a build/w_main.o
 .debug_line    0x000000000001aa80      0x519 build/w_wad.o
 .debug_line    0x000000000001af99      0x53d build/z_zone.o
 .debug_line    0x000000000001b4d6      0x174 build/w_file_stdc.o
 .debug_line    0x000000000001b64a       0xde build/i_input.o
 .debug_line    0x000000000001b728      0x340 build/i_video.o
 .debug_line    0x000000000001ba68       0x98 build/doomgeneric.o
 .debug_line    0x000000000001bb00      0x2ba build/doomgeneric_xlib.o

.debug_frame
 *(.debug_frame)

.debug_str      0x0000000000000000     0xd884
 *(.debug_str)
 .debug_str     0x0000000000000000       0xb7 build/dummy.o
 .debug_str     0x00000000000000b7     0x40d6 build/am_map.o
                                       0x43fd (size before relaxing)
 .debug_str     0x000000000000418d      0x18e build/doomstat.o
                                        0x228 (size before relaxing)
 .debug_str     0x000000000000431b       0x25 build/dstrings.o
                                         0x99 (size before relaxing)
 .debug_str     0x0000000000004340       0x43 build/d_event.o
                                        0x118 (size before relaxing)
 .debug_str     0x0000000000004383       0x91 build/d_items.o
                                        0x109 (size before relaxing)
 .debug_str     0x0000000000004414      0x153 build/d_iwad.o
                                        0x2e3 (size before relaxing)
 .debug_str     0x0000000000004567      0x3b8 build/d_loop.o
                                        0x5a0 (size before relaxing)
 .debug_str     0x000000000000491f      0x760 build/d_main.o
                                        0xb10 (size before relaxing)
 .debug_str     0x000000000000507f       0x8d build/d_mode.o
                                        0x29c (size before relaxing)
 .debug_str     0x000000000000510c       0x98 build/d_net.o
                                       0x3e24 (size before relaxing)
 .debug_str     0x00000000000051a4      0x6b4 build/f_finale.o
                                       0x4440 (size before relaxing)
 .debug_str     0x0000000000005858      0x102 build/f_wipe.o
                                        0x249 (size before relaxing)
 .debug_str     0x000000000000595a      0x816 build/g_game.o
                                       0x4f16 (size before relaxing)
 .debug_str     0x0000000000006170      0x1f0 build/hu_lib.o
                                        0x304 (size before relaxing)
 .debug_str     0x0000000000006360      0x1a4 build/hu_stuff.o
                                       0x45f0 (size before relaxing)
 .debug_str     0x0000000000006504       0x20 build/info.o
                                       0x3295 (size before relaxing)
 .debug_str     0x0000000000006524       0xb0 build/i_cdmus.o
                                        0x121 (size before relaxing)
 .debug_str     0x00000000000065d4       0x20 build/i_endoom.o
                                         0xab (size before relaxing)
 .debug_str     0x00000000000065f4       0xfd build/i_joystick.o
                                        0x17c (size before relaxing)
 .debug_str     0x00000000000066f1      0x3e0 build/i_scale.o
                                        0x56d (size before relaxing)
 .debug_str     0x0000000000006ad1      0x39b build/i_sound.o
                                        0x514 (size before relaxing)
 .debug_str     0x0000000000006e6c      0x245 build/i_system.o
                                        0x3af (size before relaxing)
 .debug_str     0x00000000000070b1       0x5d build/i_timer.o
                                         0xec (size before relaxing)
 .debug_str     0x000000000000710e      0x107 build/memio.o
                                        0x22c (size before relaxing)
 .debug_str     0x0000000000007215       0x74 build/m_argv.o
                                        0x108 (size before relaxing)
 .debug_str     0x0000000000007289       0x41 build/m_bbox.o
                                         0xbb (size before relaxing)
 .debug_str     0x00000000000072ca       0x2a build/m_cheat.o
                                        0x132 (size before relaxing)
 .debug_str     0x00000000000072f4      0x27a build/m_config.o
                                        0x38e (size before relaxing)
 .debug_str     0x000000000000756e      0x6a4 build/m_controls.o
                                        0x73c (size before relaxing)
 .debug_str     0x0000000000007c12       0x26 build/m_fixed.o
                                         0xb4 (size before relaxing)
 .debug_str     0x0000000000007c38      0x89e build/m_menu.o
                                       0x1125 (size before relaxing)
 .debug_str     0x00000000000084d6      0x18d build/m_misc.o
                                        0x54b (size before relaxing)
 .debug_str     0x0000000000008663       0x3e build/m_random.o
                                         0xc8 (size before relaxing)
 .debug_str     0x00000000000086a1      0x13c build/p_ceilng.o
                                       0x4392 (size before relaxing)
 .debug_str     0x00000000000087dd      0x1d0 build/p_doors.o
                                       0x4491 (size before relaxing)
 .debug_str     0x00000000000089ad      0x581 build/p_enemy.o
                                       0x4aab (size before relaxing)
 .debug_str     0x0000000000008f2e      0x100 build/p_floor.o
                                       0x444c (size before relaxing)
 .debug_str     0x000000000000902e      0x125 build/p_inter.o
                                       0x4679 (size before relaxing)
 .debug_str     0x0000000000009153      0x133 build/p_lights.o
                                       0x3f18 (size before relaxing)
 .debug_str     0x0000000000009286      0x341 build/p_map.o
                                       0x46f6 (size before relaxing)
 .debug_str     0x00000000000095c7      0x27a build/p_maputl.o
                                       0x41f7 (size before relaxing)
 .debug_str     0x0000000000009841      0x177 build/p_mobj.o
                                       0x469a (size before relaxing)
 .debug_str     0x00000000000099b8       0x6e build/p_plats.o
                                       0x437f (size before relaxing)
 .debug_str     0x0000000000009a26      0x1b9 build/p_pspr.o
                                       0x4640 (size before relaxing)
 .debug_str     0x0000000000009bdf      0x47f build/p_saveg.o
                                       0x48c4 (size before relaxing)
 .debug_str     0x000000000000a05e      0x31a build/p_setup.o
                                       0x425c (size before relaxing)
 .debug_str     0x000000000000a378       0xa2 build/p_sight.o
                                       0x3ee5 (size before relaxing)
 .debug_str     0x000000000000a41a      0x271 build/p_spec.o
                                       0x4809 (size before relaxing)
 .debug_str     0x000000000000a68b       0xe8 build/p_switch.o
                                       0x450d (size before relaxing)
 .debug_str     0x000000000000a773       0x1c build/p_telept.o
                                       0x4403 (size before relaxing)
 .debug_str     0x000000000000a78f       0x69 build/p_tick.o
                                        0x15d (size before relaxing)
 .debug_str     0x000000000000a7f8       0x5a build/p_user.o
                                       0x401a (size before relaxing)
 .debug_str     0x000000000000a852      0x161 build/r_bsp.o
                                       0x3f97 (size before relaxing)
 .debug_str     0x000000000000a9b3      0x3cd build/r_data.o
                                       0x4260 (size before relaxing)
 .debug_str     0x000000000000ad80      0x225 build/r_draw.o
                                        0x419 (size before relaxing)
 .debug_str     0x000000000000afa5      0x280 build/r_main.o
                                       0x4107 (size before relaxing)
 .debug_str     0x000000000000b225      0x187 build/r_plane.o
                                        0x348 (size before relaxing)
 .debug_str     0x000000000000b3ac      0x1c6 build/r_segs.o
                                       0x403f (size before relaxing)
 .debug_str     0x000000000000b572       0x39 build/r_sky.o
                                         0xa3 (size before relaxing)
 .debug_str     0x000000000000b5ab      0x28b build/r_things.o
                                       0x441a (size before relaxing)
 .debug_str     0x000000000000b836       0x9a build/sha1.o
                                        0x1b6 (size before relaxing)
 .debug_str     0x000000000000b8d0       0x23 build/sounds.o
                                        0x113 (size before relaxing)
 .debug_str     0x000000000000b8f3       0x30 build/statdump.o
                                        0x16d (size before relaxing)
 .debug_str     0x000000000000b923      0x11b build/st_lib.o
                                        0x27b (size before relaxing)
 .debug_str     0x000000000000ba3e      0x44b build/st_stuff.o
                                       0x48f0 (size before relaxing)
 .debug_str     0x000000000000be89      0x18b build/s_sound.o
                                       0x480f (size before relaxing)
 .debug_str     0x000000000000c014       0x48 build/tables.o
                                        0x109 (size before relaxing)
 .debug_str     0x000000000000c05c      0x2bf build/v_video.o
                                        0x4cc (size before relaxing)
 .debug_str     0x000000000000c31b      0x447 build/wi_stuff.o
                                       0x4bdd (size before relaxing)
 .debug_str     0x000000000000c762       0x6b build/w_checksum.o
                                        0x22b (size before relaxing)
 .debug_str     0x000000000000c7cd       0x43 build/w_file.o
                                        0x17f (size before relaxing)
 .debug_str     0x000000000000c810       0x1c build/w_main.o
                                         0xbc (size before relaxing)
 .debug_str     0x000000000000c82c      0x17c build/w_wad.o
                                        0x41a (size before relaxing)
 .debug_str     0x000000000000c9a8       0xe4 build/z_zone.o
                                        0x3f1 (size before relaxing)
 .debug_str     0x000000000000ca8c       0x62 build/w_file_stdc.o
                                        0x3a4 (size before relaxing)
 .debug_str     0x000000000000caee       0x76 build/i_input.o
                                        0x16c (size before relaxing)
 .debug_str     0x000000000000cb64      0x28d build/i_video.o
                                        0x44f (size before relaxing)
 .debug_str     0x000000000000cdf1       0x31 build/doomgeneric.o
                                         0xcb (size before relaxing)
 .debug_str     0x000000000000ce22      0xa62 build/doomgeneric_xlib.o
                                        0xcb4 (size before relaxing)

.debug_loc      0x0000000000000000    0x24304
 *(.debug_loc)
 .debug_loc     0x0000000000000000     0x1066 build/am_map.o
 .debug_loc     0x0000000000001066       0x23 build/d_event.o
 .debug_loc     0x0000000000001089      0x886 build/d_iwad.o
 .debug_loc     0x000000000000190f      0x564 build/d_loop.o
 .debug_loc     0x0000000000001e73      0x557 build/d_main.o
 .debug_loc     0x00000000000023ca      0x245 build/d_mode.o
 .debug_loc     0x000000000000260f      0x148 build/d_net.o
 .debug_loc     0x0000000000002757      0x806 build/f_finale.o
 .debug_loc     0x0000000000002f5d      0x930 build/f_wipe.o
 .debug_loc     0x000000000000388d     0x1124 build/g_game.o
 .debug_loc     0x00000000000049b1      0x80a build/hu_lib.o
 .debug_loc     0x00000000000051bb      0x3b8 build/hu_stuff.o
 .debug_loc     0x0000000000005573       0x38 build/i_joystick.o
 .debug_loc     0x00000000000055ab     0x2a89 build/i_scale.o
 .debug_loc     0x0000000000008034       0x23 build/i_sound.o
 .debug_loc     0x0000000000008057      0x60d build/i_system.o
 .debug_loc     0x0000000000008664       0x46 build/i_timer.o
 .debug_loc     0x00000000000086aa      0x3ec build/memio.o
 .debug_loc     0x0000000000008a96      0x10d build/m_argv.o
 .debug_loc     0x0000000000008ba3       0x36 build/m_bbox.o
 .debug_loc     0x0000000000008bd9       0xd8 build/m_cheat.o
 .debug_loc     0x0000000000008cb1      0x4d2 build/m_config.o
 .debug_loc     0x0000000000009183       0x5b build/m_controls.o
 .debug_loc     0x00000000000091de       0x6c build/m_fixed.o
 .debug_loc     0x000000000000924a      0xe91 build/m_menu.o
 .debug_loc     0x000000000000a0db      0xfec build/m_misc.o
 .debug_loc     0x000000000000b0c7      0x428 build/p_ceilng.o
 .debug_loc     0x000000000000b4ef      0x4d1 build/p_doors.o
 .debug_loc     0x000000000000b9c0     0x234f build/p_enemy.o
 .debug_loc     0x000000000000dd0f      0x9ee build/p_floor.o
 .debug_loc     0x000000000000e6fd      0xb25 build/p_inter.o
 .debug_loc     0x000000000000f222      0x5b5 build/p_lights.o
 .debug_loc     0x000000000000f7d7     0x16e8 build/p_map.o
 .debug_loc     0x0000000000010ebf     0x1507 build/p_maputl.o
 .debug_loc     0x00000000000123c6      0xf7a build/p_mobj.o
 .debug_loc     0x0000000000013340      0x412 build/p_plats.o
 .debug_loc     0x0000000000013752      0xc5f build/p_pspr.o
 .debug_loc     0x00000000000143b1      0xf1a build/p_saveg.o
 .debug_loc     0x00000000000152cb      0xc82 build/p_setup.o
 .debug_loc     0x0000000000015f4d      0x5eb build/p_sight.o
 .debug_loc     0x0000000000016538     0x152c build/p_spec.o
 .debug_loc     0x0000000000017a64      0x541 build/p_switch.o
 .debug_loc     0x0000000000017fa5      0x202 build/p_telept.o
 .debug_loc     0x00000000000181a7       0x4c build/p_tick.o
 .debug_loc     0x00000000000181f3      0x376 build/p_user.o
 .debug_loc     0x0000000000018569      0x7da build/r_bsp.o
 .debug_loc     0x0000000000018d43      0xfcd build/r_data.o
 .debug_loc     0x0000000000019d10      0x77c build/r_draw.o
 .debug_loc     0x000000000001a48c      0xd1a build/r_main.o
 .debug_loc     0x000000000001b1a6      0x619 build/r_plane.o
 .debug_loc     0x000000000001b7bf      0x530 build/r_segs.o
 .debug_loc     0x000000000001bcef      0xdd3 build/r_things.o
 .debug_loc     0x000000000001cac2     0x10ed build/sha1.o
 .debug_loc     0x000000000001dbaf       0x36 build/statdump.o
 .debug_loc     0x000000000001dbe5      0x40e build/st_lib.o
 .debug_loc     0x000000000001dff3      0x9e4 build/st_stuff.o
 .debug_loc     0x000000000001e9d7      0x867 build/s_sound.o
 .debug_loc     0x000000000001f23e       0x69 build/tables.o
 .debug_loc     0x000000000001f2a7     0x1c6e build/v_video.o
 .debug_loc     0x0000000000020f15     0x1487 build/wi_stuff.o
 .debug_loc     0x000000000002239c      0x135 build/w_checksum.o
 .debug_loc     0x00000000000224d1       0x49 build/w_file.o
 .debug_loc     0x000000000002251a       0xa6 build/w_main.o
 .debug_loc     0x00000000000225c0      0x8d2 build/w_wad.o
 .debug_loc     0x0000000000022e92      0x7dc build/z_zone.o
 .debug_loc     0x000000000002366e      0x1f6 build/w_file_stdc.o
 .debug_loc     0x0000000000023864      0x170 build/i_input.o
 .debug_loc     0x00000000000239d4      0x528 build/i_video.o
 .debug_loc     0x0000000000023efc       0x46 build/doomgeneric.o
 .debug_loc     0x0000000000023f42      0x3c2 build/doomgeneric_xlib.o

.debug_macinfo  0x0000000000000000       0x50
 *(.debug_macinfo)
 .debug_macinfo
                0x0000000000000000        0x1 build/dummy.o
 .debug_macinfo
                0x0000000000000001        0x1 build/am_map.o
 .debug_macinfo
                0x0000000000000002        0x1 build/doomstat.o
 .debug_macinfo
                0x0000000000000003        0x1 build/dstrings.o
 .debug_macinfo
                0x0000000000000004        0x1 build/d_event.o
 .debug_macinfo
                0x0000000000000005        0x1 build/d_items.o
 .debug_macinfo
                0x0000000000000006        0x1 build/d_iwad.o
 .debug_macinfo
                0x0000000000000007        0x1 build/d_loop.o
 .debug_macinfo
                0x0000000000000008        0x1 build/d_main.o
 .debug_macinfo
                0x0000000000000009        0x1 build/d_mode.o
 .debug_macinfo
                0x000000000000000a        0x1 build/d_net.o
 .debug_macinfo
                0x000000000000000b        0x1 build/f_finale.o
 .debug_macinfo
                0x000000000000000c        0x1 build/f_wipe.o
 .debug_macinfo
                0x000000000000000d        0x1 build/g_game.o
 .debug_macinfo
                0x000000000000000e        0x1 build/hu_lib.o
 .debug_macinfo
                0x000000000000000f        0x1 build/hu_stuff.o
 .debug_macinfo
                0x0000000000000010        0x1 build/info.o
 .debug_macinfo
                0x0000000000000011        0x1 build/i_cdmus.o
 .debug_macinfo
                0x0000000000000012        0x1 build/i_endoom.o
 .debug_macinfo
                0x0000000000000013        0x1 build/i_joystick.o
 .debug_macinfo
                0x0000000000000014        0x1 build/i_scale.o
 .debug_macinfo
                0x0000000000000015        0x1 build/i_sound.o
 .debug_macinfo
                0x0000000000000016        0x1 build/i_system.o
 .debug_macinfo
                0x0000000000000017        0x1 build/i_timer.o
 .debug_macinfo
                0x0000000000000018        0x1 build/memio.o
 .debug_macinfo
                0x0000000000000019        0x1 build/m_argv.o
 .debug_macinfo
                0x000000000000001a        0x1 build/m_bbox.o
 .debug_macinfo
                0x000000000000001b        0x1 build/m_cheat.o
 .debug_macinfo
                0x000000000000001c        0x1 build/m_config.o
 .debug_macinfo
                0x000000000000001d        0x1 build/m_controls.o
 .debug_macinfo
                0x000000000000001e        0x1 build/m_fixed.o
 .debug_macinfo
                0x000000000000001f        0x1 build/m_menu.o
 .debug_macinfo
                0x0000000000000020        0x1 build/m_misc.o
 .debug_macinfo
                0x0000000000000021        0x1 build/m_random.o
 .debug_macinfo
                0x0000000000000022        0x1 build/p_ceilng.o
 .debug_macinfo
                0x0000000000000023        0x1 build/p_doors.o
 .debug_macinfo
                0x0000000000000024        0x1 build/p_enemy.o
 .debug_macinfo
                0x0000000000000025        0x1 build/p_floor.o
 .debug_macinfo
                0x0000000000000026        0x1 build/p_inter.o
 .debug_macinfo
                0x0000000000000027        0x1 build/p_lights.o
 .debug_macinfo
                0x0000000000000028        0x1 build/p_map.o
 .debug_macinfo
                0x0000000000000029        0x1 build/p_maputl.o
 .debug_macinfo
                0x000000000000002a        0x1 build/p_mobj.o
 .debug_macinfo
                0x000000000000002b        0x1 build/p_plats.o
 .debug_macinfo
                0x000000000000002c        0x1 build/p_pspr.o
 .debug_macinfo
                0x000000000000002d        0x1 build/p_saveg.o
 .debug_macinfo
                0x000000000000002e        0x1 build/p_setup.o
 .debug_macinfo
                0x000000000000002f        0x1 build/p_sight.o
 .debug_macinfo
                0x0000000000000030        0x1 build/p_spec.o
 .debug_macinfo
                0x0000000000000031        0x1 build/p_switch.o
 .debug_macinfo
                0x0000000000000032        0x1 build/p_telept.o
 .debug_macinfo
                0x0000000000000033        0x1 build/p_tick.o
 .debug_macinfo
                0x0000000000000034        0x1 build/p_user.o
 .debug_macinfo
                0x0000000000000035        0x1 build/r_bsp.o
 .debug_macinfo
                0x0000000000000036        0x1 build/r_data.o
 .debug_macinfo
                0x0000000000000037        0x1 build/r_draw.o
 .debug_macinfo
                0x0000000000000038        0x1 build/r_main.o
 .debug_macinfo
                0x0000000000000039        0x1 build/r_plane.o
 .debug_macinfo
                0x000000000000003a        0x1 build/r_segs.o
 .debug_macinfo
                0x000000000000003b        0x1 build/r_sky.o
 .debug_macinfo
                0x000000000000003c        0x1 build/r_things.o
 .debug_macinfo
                0x000000000000003d        0x1 build/sha1.o
 .debug_macinfo
                0x000000000000003e        0x1 build/sounds.o
 .debug_macinfo
                0x000000000000003f        0x1 build/statdump.o
 .debug_macinfo
                0x0000000000000040        0x1 build/st_lib.o
 .debug_macinfo
                0x0000000000000041        0x1 build/st_stuff.o
 .debug_macinfo
                0x0000000000000042        0x1 build/s_sound.o
 .debug_macinfo
                0x0000000000000043        0x1 build/tables.o
 .debug_macinfo
                0x0000000000000044        0x1 build/v_video.o
 .debug_macinfo
                0x0000000000000045        0x1 build/wi_stuff.o
 .debug_macinfo
                0x0000000000000046        0x1 build/w_checksum.o
 .debug_macinfo
                0x0000000000000047        0x1 build/w_file.o
 .debug_macinfo
                0x0000000000000048        0x1 build/w_main.o
 .debug_macinfo
                0x0000000000000049        0x1 build/w_wad.o
 .debug_macinfo
                0x000000000000004a        0x1 build/z_zone.o
 .debug_macinfo
                0x000000000000004b        0x1 build/w_file_stdc.o
 .debug_macinfo
                0x000000000000004c        0x1 build/i_input.o
 .debug_macinfo
                0x000000000000004d        0x1 build/i_video.o
 .debug_macinfo
                0x000000000000004e        0x1 build/doomgeneric.o
 .debug_macinfo
                0x000000000000004f        0x1 build/doomgeneric_xlib.o

.debug_weaknames
 *(.debug_weaknames)

.debug_funcnames
 *(.debug_funcnames)

.debug_typenames
 *(.debug_typenames)

.debug_varnames
 *(.debug_varnames)

.debug_pubtypes
                0x0000000000000000     0x6ad9
 *(.debug_pubtypes)
 .debug_pubtypes
                0x0000000000000000       0x1e build/dummy.o
 .debug_pubtypes
                0x000000000000001e      0x2b7 build/am_map.o
 .debug_pubtypes
                0x00000000000002d5       0x5a build/doomstat.o
 .debug_pubtypes
                0x000000000000032f       0x1b build/dstrings.o
 .debug_pubtypes
                0x000000000000034a       0x33 build/d_event.o
 .debug_pubtypes
                0x000000000000037d       0x3a build/d_items.o
 .debug_pubtypes
                0x00000000000003b7       0x7c build/d_iwad.o
 .debug_pubtypes
                0x0000000000000433      0x124 build/d_loop.o
 .debug_pubtypes
                0x0000000000000557      0x136 build/d_main.o
 .debug_pubtypes
                0x000000000000068d       0x62 build/d_mode.o
 .debug_pubtypes
                0x00000000000006ef      0x223 build/d_net.o
 .debug_pubtypes
                0x0000000000000912      0x1b7 build/f_finale.o
 .debug_pubtypes
                0x0000000000000ac9       0x65 build/f_wipe.o
 .debug_pubtypes
                0x0000000000000b2e      0x2cd build/g_game.o
 .debug_pubtypes
                0x0000000000000dfb       0x87 build/hu_lib.o
 .debug_pubtypes
                0x0000000000000e82      0x278 build/hu_stuff.o
 .debug_pubtypes
                0x00000000000010fa       0x97 build/info.o
 .debug_pubtypes
                0x0000000000001191       0x1a build/i_cdmus.o
 .debug_pubtypes
                0x00000000000011ab       0x47 build/i_endoom.o
 .debug_pubtypes
                0x00000000000011f2       0x23 build/i_joystick.o
 .debug_pubtypes
                0x0000000000001215       0x6d build/i_scale.o
 .debug_pubtypes
                0x0000000000001282       0x86 build/i_sound.o
 .debug_pubtypes
                0x0000000000001308      0x130 build/i_system.o
 .debug_pubtypes
                0x0000000000001438       0x47 build/i_timer.o
 .debug_pubtypes
                0x000000000000147f       0xa5 build/memio.o
 .debug_pubtypes
                0x0000000000001524       0x2f build/m_argv.o
 .debug_pubtypes
                0x0000000000001553       0x26 build/m_bbox.o
 .debug_pubtypes
                0x0000000000001579       0x53 build/m_cheat.o
 .debug_pubtypes
                0x00000000000015cc       0x73 build/m_config.o
 .debug_pubtypes
                0x000000000000163f       0x34 build/m_controls.o
 .debug_pubtypes
                0x0000000000001673       0x4d build/m_fixed.o
 .debug_pubtypes
                0x00000000000016c0      0x127 build/m_menu.o
 .debug_pubtypes
                0x00000000000017e7      0x15b build/m_misc.o
 .debug_pubtypes
                0x0000000000001942       0x2c build/m_random.o
 .debug_pubtypes
                0x000000000000196e      0x24a build/p_ceilng.o
 .debug_pubtypes
                0x0000000000001bb8      0x27a build/p_doors.o
 .debug_pubtypes
                0x0000000000001e32      0x23c build/p_enemy.o
 .debug_pubtypes
                0x000000000000206e      0x261 build/p_floor.o
 .debug_pubtypes
                0x00000000000022cf      0x23d build/p_inter.o
 .debug_pubtypes
                0x000000000000250c      0x25c build/p_lights.o
 .debug_pubtypes
                0x0000000000002768      0x24e build/p_map.o
 .debug_pubtypes
                0x00000000000029b6      0x278 build/p_maputl.o
 .debug_pubtypes
                0x0000000000002c2e      0x233 build/p_mobj.o
 .debug_pubtypes
                0x0000000000002e61      0x253 build/p_plats.o
 .debug_pubtypes
                0x00000000000030b4      0x232 build/p_pspr.o
 .debug_pubtypes
                0x00000000000032e6      0x375 build/p_saveg.o
 .debug_pubtypes
                0x000000000000365b      0x2e0 build/p_setup.o
 .debug_pubtypes
                0x000000000000393b      0x272 build/p_sight.o
 .debug_pubtypes
                0x0000000000003bad      0x26e build/p_spec.o
 .debug_pubtypes
                0x0000000000003e1b      0x24c build/p_switch.o
 .debug_pubtypes
                0x0000000000004067      0x221 build/p_telept.o
 .debug_pubtypes
                0x0000000000004288       0x7c build/p_tick.o
 .debug_pubtypes
                0x0000000000004304      0x223 build/p_user.o
 .debug_pubtypes
                0x0000000000004527      0x290 build/r_bsp.o
 .debug_pubtypes
                0x00000000000047b7      0x2bb build/r_data.o
 .debug_pubtypes
                0x0000000000004a72       0x9c build/r_draw.o
 .debug_pubtypes
                0x0000000000004b0e      0x282 build/r_main.o
 .debug_pubtypes
                0x0000000000004d90       0xb6 build/r_plane.o
 .debug_pubtypes
                0x0000000000004e46      0x27b build/r_segs.o
 .debug_pubtypes
                0x00000000000050c1       0x1a build/r_sky.o
 .debug_pubtypes
                0x00000000000050db      0x2c9 build/r_things.o
 .debug_pubtypes
                0x00000000000053a4       0xcc build/sha1.o
 .debug_pubtypes
                0x0000000000005470       0x54 build/sounds.o
 .debug_pubtypes
                0x00000000000054c4       0x4f build/statdump.o
 .debug_pubtypes
                0x0000000000005513       0x80 build/st_lib.o
 .debug_pubtypes
                0x0000000000005593      0x2fa build/st_stuff.o
 .debug_pubtypes
                0x000000000000588d      0x255 build/s_sound.o
 .debug_pubtypes
                0x0000000000005ae2       0x78 build/tables.o
 .debug_pubtypes
                0x0000000000005b5a       0xc4 build/v_video.o
 .debug_pubtypes
                0x0000000000005c1e      0x2bb build/wi_stuff.o
 .debug_pubtypes
                0x0000000000005ed9      0x11e build/w_checksum.o
 .debug_pubtypes
                0x0000000000005ff7       0xbe build/w_file.o
 .debug_pubtypes
                0x00000000000060b5       0x2f build/w_main.o
 .debug_pubtypes
                0x00000000000060e4      0x10b build/w_wad.o
 .debug_pubtypes
                0x00000000000061ef      0x134 build/z_zone.o
 .debug_pubtypes
                0x0000000000006323      0x150 build/w_file_stdc.o
 .debug_pubtypes
                0x0000000000006473       0x4e build/i_input.o
 .debug_pubtypes
                0x00000000000064c1      0x119 build/i_video.o
 .debug_pubtypes
                0x00000000000065da       0x50 build/doomgeneric.o
 .debug_pubtypes
                0x000000000000662a      0x4af build/doomgeneric_xlib.o

.debug_ranges   0x0000000000000000      0x7d0
 *(.debug_ranges)
 .debug_ranges  0x0000000000000000        0x0 build/dummy.o
 .debug_ranges  0x0000000000000000        0x0 build/am_map.o
 .debug_ranges  0x0000000000000000        0x0 build/doomstat.o
 .debug_ranges  0x0000000000000000        0x0 build/dstrings.o
 .debug_ranges  0x0000000000000000        0x0 build/d_event.o
 .debug_ranges  0x0000000000000000        0x0 build/d_items.o
 .debug_ranges  0x0000000000000000       0x60 build/d_iwad.o
 .debug_ranges  0x0000000000000060       0x60 build/d_loop.o
 .debug_ranges  0x00000000000000c0       0x40 build/d_main.o
 .debug_ranges  0x0000000000000100        0x0 build/d_mode.o
 .debug_ranges  0x0000000000000100        0x0 build/d_net.o
 .debug_ranges  0x0000000000000100       0x30 build/f_finale.o
 .debug_ranges  0x0000000000000130        0x0 build/f_wipe.o
 .debug_ranges  0x0000000000000130       0x90 build/g_game.o
 .debug_ranges  0x00000000000001c0        0x0 build/hu_lib.o
 .debug_ranges  0x00000000000001c0       0x90 build/hu_stuff.o
 .debug_ranges  0x0000000000000250        0x0 build/info.o
 .debug_ranges  0x0000000000000250        0x0 build/i_cdmus.o
 .debug_ranges  0x0000000000000250        0x0 build/i_endoom.o
 .debug_ranges  0x0000000000000250        0x0 build/i_joystick.o
 .debug_ranges  0x0000000000000250        0x0 build/i_scale.o
 .debug_ranges  0x0000000000000250        0x0 build/i_sound.o
 .debug_ranges  0x0000000000000250       0x30 build/i_system.o
 .debug_ranges  0x0000000000000280        0x0 build/i_timer.o
 .debug_ranges  0x0000000000000280        0x0 build/memio.o
 .debug_ranges  0x0000000000000280        0x0 build/m_argv.o
 .debug_ranges  0x0000000000000280        0x0 build/m_bbox.o
 .debug_ranges  0x0000000000000280        0x0 build/m_cheat.o
 .debug_ranges  0x0000000000000280        0x0 build/m_config.o
 .debug_ranges  0x0000000000000280        0x0 build/m_controls.o
 .debug_ranges  0x0000000000000280        0x0 build/m_fixed.o
 .debug_ranges  0x0000000000000280       0xa0 build/m_menu.o
 .debug_ranges  0x0000000000000320       0x30 build/m_misc.o
 .debug_ranges  0x0000000000000350        0x0 build/m_random.o
 .debug_ranges  0x0000000000000350        0x0 build/p_ceilng.o
 .debug_ranges  0x0000000000000350        0x0 build/p_doors.o
 .debug_ranges  0x0000000000000350       0xa0 build/p_enemy.o
 .debug_ranges  0x00000000000003f0       0x30 build/p_floor.o
 .debug_ranges  0x0000000000000420        0x0 build/p_inter.o
 .debug_ranges  0x0000000000000420        0x0 build/p_lights.o
 .debug_ranges  0x0000000000000420       0x30 build/p_map.o
 .debug_ranges  0x0000000000000450        0x0 build/p_maputl.o
 .debug_ranges  0x0000000000000450        0x0 build/p_mobj.o
 .debug_ranges  0x0000000000000450        0x0 build/p_plats.o
 .debug_ranges  0x0000000000000450        0x0 build/p_pspr.o
 .debug_ranges  0x0000000000000450        0x0 build/p_saveg.o
 .debug_ranges  0x0000000000000450        0x0 build/p_setup.o
 .debug_ranges  0x0000000000000450        0x0 build/p_sight.o
 .debug_ranges  0x0000000000000450       0x70 build/p_spec.o
 .debug_ranges  0x00000000000004c0        0x0 build/p_switch.o
 .debug_ranges  0x00000000000004c0        0x0 build/p_telept.o
 .debug_ranges  0x00000000000004c0        0x0 build/p_tick.o
 .debug_ranges  0x00000000000004c0        0x0 build/p_user.o
 .debug_ranges  0x00000000000004c0        0x0 build/r_bsp.o
 .debug_ranges  0x00000000000004c0        0x0 build/r_data.o
 .debug_ranges  0x00000000000004c0       0x40 build/r_draw.o
 .debug_ranges  0x0000000000000500        0x0 build/r_main.o
 .debug_ranges  0x0000000000000500        0x0 build/r_plane.o
 .debug_ranges  0x0000000000000500        0x0 build/r_segs.o
 .debug_ranges  0x0000000000000500        0x0 build/r_sky.o
 .debug_ranges  0x0000000000000500        0x0 build/r_things.o
 .debug_ranges  0x0000000000000500        0x0 build/sha1.o
 .debug_ranges  0x0000000000000500        0x0 build/sounds.o
 .debug_ranges  0x0000000000000500        0x0 build/statdump.o
 .debug_ranges  0x0000000000000500        0x0 build/st_lib.o
 .debug_ranges  0x0000000000000500      0x1e0 build/st_stuff.o
 .debug_ranges  0x00000000000006e0       0x30 build/s_sound.o
 .debug_ranges  0x0000000000000710        0x0 build/tables.o
 .debug_ranges  0x0000000000000710       0x90 build/v_video.o
 .debug_ranges  0x00000000000007a0        0x0 build/wi_stuff.o
 .debug_ranges  0x00000000000007a0        0x0 build/w_checksum.o
 .debug_ranges  0x00000000000007a0        0x0 build/w_file.o
 .debug_ranges  0x00000000000007a0        0x0 build/w_main.o
 .debug_ranges  0x00000000000007a0       0x30 build/w_wad.o
 .debug_ranges  0x00000000000007d0        0x0 build/z_zone.o
 .debug_ranges  0x00000000000007d0        0x0 build/w_file_stdc.o
 .debug_ranges  0x00000000000007d0        0x0 build/i_input.o
 .debug_ranges  0x00000000000007d0        0x0 build/i_video.o
 .debug_ranges  0x00000000000007d0        0x0 build/doomgeneric.o
 .debug_ranges  0x00000000000007d0        0x0 build/doomgeneric_xlib.o

.debug_macro
 *(.debug_macro)

.debug_addr
 *(.debug_addr)

.gnu.attributes
 *(.gnu.attributes)

/DISCARD/
 *(.note.GNU-stack)
 *(.gnu_debuglink)
 *(.gnu.lto_*)
OUTPUT(doomgeneric elf64-x86-64)
